
kernel/kernel：     文件格式 elf64-littleriscv


Disassembly of section .text:

0000000080000000 <_entry>:
    80000000:	0000b117          	auipc	sp,0xb
    80000004:	80010113          	addi	sp,sp,-2048 # 8000a800 <stack0>
    80000008:	6505                	lui	a0,0x1
    8000000a:	f14025f3          	csrr	a1,mhartid
    8000000e:	0585                	addi	a1,a1,1
    80000010:	02b50533          	mul	a0,a0,a1
    80000014:	912a                	add	sp,sp,a0
    80000016:	070000ef          	jal	ra,80000086 <start>

000000008000001a <junk>:
    8000001a:	a001                	j	8000001a <junk>

000000008000001c <timerinit>:
// which arrive at timervec in kernelvec.S,
// which turns them into software interrupts for
// devintr() in trap.c.
void
timerinit()
{
    8000001c:	1141                	addi	sp,sp,-16
    8000001e:	e422                	sd	s0,8(sp)
    80000020:	0800                	addi	s0,sp,16
// which hart (core) is this?
static inline uint64
r_mhartid()
{
  uint64 x;
  asm volatile("csrr %0, mhartid" : "=r" (x) );
    80000022:	f14027f3          	csrr	a5,mhartid
  // each CPU has a separate source of timer interrupts.
  int id = r_mhartid();

  // ask the CLINT for a timer interrupt.
  int interval = 1000000; // cycles; about 1/10th second in qemu.
  *(uint64*)CLINT_MTIMECMP(id) = *(uint64*)CLINT_MTIME + interval;
    80000026:	0037969b          	slliw	a3,a5,0x3
    8000002a:	02004737          	lui	a4,0x2004
    8000002e:	96ba                	add	a3,a3,a4
    80000030:	0200c737          	lui	a4,0x200c
    80000034:	ff873603          	ld	a2,-8(a4) # 200bff8 <_entry-0x7dff4008>
    80000038:	000f4737          	lui	a4,0xf4
    8000003c:	24070713          	addi	a4,a4,576 # f4240 <_entry-0x7ff0bdc0>
    80000040:	963a                	add	a2,a2,a4
    80000042:	e290                	sd	a2,0(a3)

  // prepare information in scratch[] for timervec.
  // scratch[0..3] : space for timervec to save registers.
  // scratch[4] : address of CLINT MTIMECMP register.
  // scratch[5] : desired interval (in cycles) between timer interrupts.
  uint64 *scratch = &mscratch0[32 * id];
    80000044:	0057979b          	slliw	a5,a5,0x5
    80000048:	078e                	slli	a5,a5,0x3
    8000004a:	0000a617          	auipc	a2,0xa
    8000004e:	fb660613          	addi	a2,a2,-74 # 8000a000 <mscratch0>
    80000052:	97b2                	add	a5,a5,a2
  scratch[4] = CLINT_MTIMECMP(id);
    80000054:	f394                	sd	a3,32(a5)
  scratch[5] = interval;
    80000056:	f798                	sd	a4,40(a5)
}

static inline void 
w_mscratch(uint64 x)
{
  asm volatile("csrw mscratch, %0" : : "r" (x));
    80000058:	34079073          	csrw	mscratch,a5
  asm volatile("csrw mtvec, %0" : : "r" (x));
    8000005c:	00006797          	auipc	a5,0x6
    80000060:	ed478793          	addi	a5,a5,-300 # 80005f30 <timervec>
    80000064:	30579073          	csrw	mtvec,a5
  asm volatile("csrr %0, mstatus" : "=r" (x) );
    80000068:	300027f3          	csrr	a5,mstatus

  // set the machine-mode trap handler.
  w_mtvec((uint64)timervec);

  // enable machine-mode interrupts.
  w_mstatus(r_mstatus() | MSTATUS_MIE);
    8000006c:	0087e793          	ori	a5,a5,8
  asm volatile("csrw mstatus, %0" : : "r" (x));
    80000070:	30079073          	csrw	mstatus,a5
  asm volatile("csrr %0, mie" : "=r" (x) );
    80000074:	304027f3          	csrr	a5,mie

  // enable machine-mode timer interrupts.
  w_mie(r_mie() | MIE_MTIE);
    80000078:	0807e793          	ori	a5,a5,128
  asm volatile("csrw mie, %0" : : "r" (x));
    8000007c:	30479073          	csrw	mie,a5
}
    80000080:	6422                	ld	s0,8(sp)
    80000082:	0141                	addi	sp,sp,16
    80000084:	8082                	ret

0000000080000086 <start>:
{
    80000086:	1141                	addi	sp,sp,-16
    80000088:	e406                	sd	ra,8(sp)
    8000008a:	e022                	sd	s0,0(sp)
    8000008c:	0800                	addi	s0,sp,16
  asm volatile("csrr %0, mstatus" : "=r" (x) );
    8000008e:	300027f3          	csrr	a5,mstatus
  x &= ~MSTATUS_MPP_MASK;
    80000092:	7779                	lui	a4,0xffffe
    80000094:	7ff70713          	addi	a4,a4,2047 # ffffffffffffe7ff <end+0xffffffff7ffce7a3>
    80000098:	8ff9                	and	a5,a5,a4
  x |= MSTATUS_MPP_S;
    8000009a:	6705                	lui	a4,0x1
    8000009c:	80070713          	addi	a4,a4,-2048 # 800 <_entry-0x7ffff800>
    800000a0:	8fd9                	or	a5,a5,a4
  asm volatile("csrw mstatus, %0" : : "r" (x));
    800000a2:	30079073          	csrw	mstatus,a5
  asm volatile("csrw mepc, %0" : : "r" (x));
    800000a6:	00001797          	auipc	a5,0x1
    800000aa:	fa078793          	addi	a5,a5,-96 # 80001046 <main>
    800000ae:	34179073          	csrw	mepc,a5
  asm volatile("csrw satp, %0" : : "r" (x));
    800000b2:	4781                	li	a5,0
    800000b4:	18079073          	csrw	satp,a5
  asm volatile("csrw medeleg, %0" : : "r" (x));
    800000b8:	67c1                	lui	a5,0x10
    800000ba:	17fd                	addi	a5,a5,-1
    800000bc:	30279073          	csrw	medeleg,a5
  asm volatile("csrw mideleg, %0" : : "r" (x));
    800000c0:	30379073          	csrw	mideleg,a5
  timerinit();
    800000c4:	00000097          	auipc	ra,0x0
    800000c8:	f58080e7          	jalr	-168(ra) # 8000001c <timerinit>
  asm volatile("csrr %0, mhartid" : "=r" (x) );
    800000cc:	f14027f3          	csrr	a5,mhartid
  w_tp(id);
    800000d0:	2781                	sext.w	a5,a5
}

static inline void 
w_tp(uint64 x)
{
  asm volatile("mv tp, %0" : : "r" (x));
    800000d2:	823e                	mv	tp,a5
  asm volatile("mret");
    800000d4:	30200073          	mret
}
    800000d8:	60a2                	ld	ra,8(sp)
    800000da:	6402                	ld	s0,0(sp)
    800000dc:	0141                	addi	sp,sp,16
    800000de:	8082                	ret

00000000800000e0 <consoleread>:
// user_dist indicates whether dst is a user
// or kernel address.
//
int
consoleread(struct file *f, int user_dst, uint64 dst, int n)
{
    800000e0:	7159                	addi	sp,sp,-112
    800000e2:	f486                	sd	ra,104(sp)
    800000e4:	f0a2                	sd	s0,96(sp)
    800000e6:	eca6                	sd	s1,88(sp)
    800000e8:	e8ca                	sd	s2,80(sp)
    800000ea:	e4ce                	sd	s3,72(sp)
    800000ec:	e0d2                	sd	s4,64(sp)
    800000ee:	fc56                	sd	s5,56(sp)
    800000f0:	f85a                	sd	s6,48(sp)
    800000f2:	f45e                	sd	s7,40(sp)
    800000f4:	f062                	sd	s8,32(sp)
    800000f6:	ec66                	sd	s9,24(sp)
    800000f8:	e86a                	sd	s10,16(sp)
    800000fa:	1880                	addi	s0,sp,112
    800000fc:	8aae                	mv	s5,a1
    800000fe:	8a32                	mv	s4,a2
    80000100:	89b6                	mv	s3,a3
  uint target;
  int c;
  char cbuf;

  target = n;
    80000102:	00068b1b          	sext.w	s6,a3
  acquire(&cons.lock);
    80000106:	00012517          	auipc	a0,0x12
    8000010a:	6fa50513          	addi	a0,a0,1786 # 80012800 <cons>
    8000010e:	00001097          	auipc	ra,0x1
    80000112:	b1c080e7          	jalr	-1252(ra) # 80000c2a <acquire>
  while(n > 0){
    // wait until interrupt handler has put some
    // input into cons.buffer.
    while(cons.r == cons.w){
    80000116:	00012497          	auipc	s1,0x12
    8000011a:	6ea48493          	addi	s1,s1,1770 # 80012800 <cons>
      if(myproc()->killed){
        release(&cons.lock);
        return -1;
      }
      sleep(&cons.r, &cons.lock);
    8000011e:	00012917          	auipc	s2,0x12
    80000122:	78290913          	addi	s2,s2,1922 # 800128a0 <cons+0xa0>
    }

    c = cons.buf[cons.r++ % INPUT_BUF];

    if(c == C('D')){  // end-of-file
    80000126:	4b91                	li	s7,4
      break;
    }

    // copy the input byte to the user-space buffer.
    cbuf = c;
    if(either_copyout(user_dst, dst, &cbuf, 1) == -1)
    80000128:	5c7d                	li	s8,-1
      break;

    dst++;
    --n;

    if(c == '\n'){
    8000012a:	4ca9                	li	s9,10
  while(n > 0){
    8000012c:	07305863          	blez	s3,8000019c <consoleread+0xbc>
    while(cons.r == cons.w){
    80000130:	0a04a783          	lw	a5,160(s1)
    80000134:	0a44a703          	lw	a4,164(s1)
    80000138:	02f71463          	bne	a4,a5,80000160 <consoleread+0x80>
      if(myproc()->killed){
    8000013c:	00002097          	auipc	ra,0x2
    80000140:	a46080e7          	jalr	-1466(ra) # 80001b82 <myproc>
    80000144:	5d1c                	lw	a5,56(a0)
    80000146:	e7b5                	bnez	a5,800001b2 <consoleread+0xd2>
      sleep(&cons.r, &cons.lock);
    80000148:	85a6                	mv	a1,s1
    8000014a:	854a                	mv	a0,s2
    8000014c:	00002097          	auipc	ra,0x2
    80000150:	20c080e7          	jalr	524(ra) # 80002358 <sleep>
    while(cons.r == cons.w){
    80000154:	0a04a783          	lw	a5,160(s1)
    80000158:	0a44a703          	lw	a4,164(s1)
    8000015c:	fef700e3          	beq	a4,a5,8000013c <consoleread+0x5c>
    c = cons.buf[cons.r++ % INPUT_BUF];
    80000160:	0017871b          	addiw	a4,a5,1
    80000164:	0ae4a023          	sw	a4,160(s1)
    80000168:	07f7f713          	andi	a4,a5,127
    8000016c:	9726                	add	a4,a4,s1
    8000016e:	02074703          	lbu	a4,32(a4)
    80000172:	00070d1b          	sext.w	s10,a4
    if(c == C('D')){  // end-of-file
    80000176:	077d0563          	beq	s10,s7,800001e0 <consoleread+0x100>
    cbuf = c;
    8000017a:	f8e40fa3          	sb	a4,-97(s0)
    if(either_copyout(user_dst, dst, &cbuf, 1) == -1)
    8000017e:	4685                	li	a3,1
    80000180:	f9f40613          	addi	a2,s0,-97
    80000184:	85d2                	mv	a1,s4
    80000186:	8556                	mv	a0,s5
    80000188:	00002097          	auipc	ra,0x2
    8000018c:	42a080e7          	jalr	1066(ra) # 800025b2 <either_copyout>
    80000190:	01850663          	beq	a0,s8,8000019c <consoleread+0xbc>
    dst++;
    80000194:	0a05                	addi	s4,s4,1
    --n;
    80000196:	39fd                	addiw	s3,s3,-1
    if(c == '\n'){
    80000198:	f99d1ae3          	bne	s10,s9,8000012c <consoleread+0x4c>
      // a whole line has arrived, return to
      // the user-level read().
      break;
    }
  }
  release(&cons.lock);
    8000019c:	00012517          	auipc	a0,0x12
    800001a0:	66450513          	addi	a0,a0,1636 # 80012800 <cons>
    800001a4:	00001097          	auipc	ra,0x1
    800001a8:	af6080e7          	jalr	-1290(ra) # 80000c9a <release>

  return target - n;
    800001ac:	413b053b          	subw	a0,s6,s3
    800001b0:	a811                	j	800001c4 <consoleread+0xe4>
        release(&cons.lock);
    800001b2:	00012517          	auipc	a0,0x12
    800001b6:	64e50513          	addi	a0,a0,1614 # 80012800 <cons>
    800001ba:	00001097          	auipc	ra,0x1
    800001be:	ae0080e7          	jalr	-1312(ra) # 80000c9a <release>
        return -1;
    800001c2:	557d                	li	a0,-1
}
    800001c4:	70a6                	ld	ra,104(sp)
    800001c6:	7406                	ld	s0,96(sp)
    800001c8:	64e6                	ld	s1,88(sp)
    800001ca:	6946                	ld	s2,80(sp)
    800001cc:	69a6                	ld	s3,72(sp)
    800001ce:	6a06                	ld	s4,64(sp)
    800001d0:	7ae2                	ld	s5,56(sp)
    800001d2:	7b42                	ld	s6,48(sp)
    800001d4:	7ba2                	ld	s7,40(sp)
    800001d6:	7c02                	ld	s8,32(sp)
    800001d8:	6ce2                	ld	s9,24(sp)
    800001da:	6d42                	ld	s10,16(sp)
    800001dc:	6165                	addi	sp,sp,112
    800001de:	8082                	ret
      if(n < target){
    800001e0:	0009871b          	sext.w	a4,s3
    800001e4:	fb677ce3          	bgeu	a4,s6,8000019c <consoleread+0xbc>
        cons.r--;
    800001e8:	00012717          	auipc	a4,0x12
    800001ec:	6af72c23          	sw	a5,1720(a4) # 800128a0 <cons+0xa0>
    800001f0:	b775                	j	8000019c <consoleread+0xbc>

00000000800001f2 <consputc>:
  if(panicked){
    800001f2:	00030797          	auipc	a5,0x30
    800001f6:	e2e7a783          	lw	a5,-466(a5) # 80030020 <panicked>
    800001fa:	c391                	beqz	a5,800001fe <consputc+0xc>
    for(;;)
    800001fc:	a001                	j	800001fc <consputc+0xa>
{
    800001fe:	1141                	addi	sp,sp,-16
    80000200:	e406                	sd	ra,8(sp)
    80000202:	e022                	sd	s0,0(sp)
    80000204:	0800                	addi	s0,sp,16
  if(c == BACKSPACE){
    80000206:	10000793          	li	a5,256
    8000020a:	00f50a63          	beq	a0,a5,8000021e <consputc+0x2c>
    uartputc(c);
    8000020e:	00000097          	auipc	ra,0x0
    80000212:	5dc080e7          	jalr	1500(ra) # 800007ea <uartputc>
}
    80000216:	60a2                	ld	ra,8(sp)
    80000218:	6402                	ld	s0,0(sp)
    8000021a:	0141                	addi	sp,sp,16
    8000021c:	8082                	ret
    uartputc('\b'); uartputc(' '); uartputc('\b');
    8000021e:	4521                	li	a0,8
    80000220:	00000097          	auipc	ra,0x0
    80000224:	5ca080e7          	jalr	1482(ra) # 800007ea <uartputc>
    80000228:	02000513          	li	a0,32
    8000022c:	00000097          	auipc	ra,0x0
    80000230:	5be080e7          	jalr	1470(ra) # 800007ea <uartputc>
    80000234:	4521                	li	a0,8
    80000236:	00000097          	auipc	ra,0x0
    8000023a:	5b4080e7          	jalr	1460(ra) # 800007ea <uartputc>
    8000023e:	bfe1                	j	80000216 <consputc+0x24>

0000000080000240 <consolewrite>:
{
    80000240:	715d                	addi	sp,sp,-80
    80000242:	e486                	sd	ra,72(sp)
    80000244:	e0a2                	sd	s0,64(sp)
    80000246:	fc26                	sd	s1,56(sp)
    80000248:	f84a                	sd	s2,48(sp)
    8000024a:	f44e                	sd	s3,40(sp)
    8000024c:	f052                	sd	s4,32(sp)
    8000024e:	ec56                	sd	s5,24(sp)
    80000250:	0880                	addi	s0,sp,80
    80000252:	89ae                	mv	s3,a1
    80000254:	84b2                	mv	s1,a2
    80000256:	8ab6                	mv	s5,a3
  acquire(&cons.lock);
    80000258:	00012517          	auipc	a0,0x12
    8000025c:	5a850513          	addi	a0,a0,1448 # 80012800 <cons>
    80000260:	00001097          	auipc	ra,0x1
    80000264:	9ca080e7          	jalr	-1590(ra) # 80000c2a <acquire>
  for(i = 0; i < n; i++){
    80000268:	03505e63          	blez	s5,800002a4 <consolewrite+0x64>
    8000026c:	00148913          	addi	s2,s1,1
    80000270:	fffa879b          	addiw	a5,s5,-1
    80000274:	1782                	slli	a5,a5,0x20
    80000276:	9381                	srli	a5,a5,0x20
    80000278:	993e                	add	s2,s2,a5
    if(either_copyin(&c, user_src, src+i, 1) == -1)
    8000027a:	5a7d                	li	s4,-1
    8000027c:	4685                	li	a3,1
    8000027e:	8626                	mv	a2,s1
    80000280:	85ce                	mv	a1,s3
    80000282:	fbf40513          	addi	a0,s0,-65
    80000286:	00002097          	auipc	ra,0x2
    8000028a:	382080e7          	jalr	898(ra) # 80002608 <either_copyin>
    8000028e:	01450b63          	beq	a0,s4,800002a4 <consolewrite+0x64>
    consputc(c);
    80000292:	fbf44503          	lbu	a0,-65(s0)
    80000296:	00000097          	auipc	ra,0x0
    8000029a:	f5c080e7          	jalr	-164(ra) # 800001f2 <consputc>
  for(i = 0; i < n; i++){
    8000029e:	0485                	addi	s1,s1,1
    800002a0:	fd249ee3          	bne	s1,s2,8000027c <consolewrite+0x3c>
  release(&cons.lock);
    800002a4:	00012517          	auipc	a0,0x12
    800002a8:	55c50513          	addi	a0,a0,1372 # 80012800 <cons>
    800002ac:	00001097          	auipc	ra,0x1
    800002b0:	9ee080e7          	jalr	-1554(ra) # 80000c9a <release>
}
    800002b4:	8556                	mv	a0,s5
    800002b6:	60a6                	ld	ra,72(sp)
    800002b8:	6406                	ld	s0,64(sp)
    800002ba:	74e2                	ld	s1,56(sp)
    800002bc:	7942                	ld	s2,48(sp)
    800002be:	79a2                	ld	s3,40(sp)
    800002c0:	7a02                	ld	s4,32(sp)
    800002c2:	6ae2                	ld	s5,24(sp)
    800002c4:	6161                	addi	sp,sp,80
    800002c6:	8082                	ret

00000000800002c8 <consoleintr>:
// do erase/kill processing, append to cons.buf,
// wake up consoleread() if a whole line has arrived.
//
void
consoleintr(int c)
{
    800002c8:	1101                	addi	sp,sp,-32
    800002ca:	ec06                	sd	ra,24(sp)
    800002cc:	e822                	sd	s0,16(sp)
    800002ce:	e426                	sd	s1,8(sp)
    800002d0:	e04a                	sd	s2,0(sp)
    800002d2:	1000                	addi	s0,sp,32
    800002d4:	84aa                	mv	s1,a0
  acquire(&cons.lock);
    800002d6:	00012517          	auipc	a0,0x12
    800002da:	52a50513          	addi	a0,a0,1322 # 80012800 <cons>
    800002de:	00001097          	auipc	ra,0x1
    800002e2:	94c080e7          	jalr	-1716(ra) # 80000c2a <acquire>

  switch(c){
    800002e6:	47d5                	li	a5,21
    800002e8:	0af48663          	beq	s1,a5,80000394 <consoleintr+0xcc>
    800002ec:	0297ca63          	blt	a5,s1,80000320 <consoleintr+0x58>
    800002f0:	47a1                	li	a5,8
    800002f2:	0ef48763          	beq	s1,a5,800003e0 <consoleintr+0x118>
    800002f6:	47c1                	li	a5,16
    800002f8:	10f49a63          	bne	s1,a5,8000040c <consoleintr+0x144>
  case C('P'):  // Print process list.
    procdump();
    800002fc:	00002097          	auipc	ra,0x2
    80000300:	362080e7          	jalr	866(ra) # 8000265e <procdump>
      }
    }
    break;
  }
  
  release(&cons.lock);
    80000304:	00012517          	auipc	a0,0x12
    80000308:	4fc50513          	addi	a0,a0,1276 # 80012800 <cons>
    8000030c:	00001097          	auipc	ra,0x1
    80000310:	98e080e7          	jalr	-1650(ra) # 80000c9a <release>
}
    80000314:	60e2                	ld	ra,24(sp)
    80000316:	6442                	ld	s0,16(sp)
    80000318:	64a2                	ld	s1,8(sp)
    8000031a:	6902                	ld	s2,0(sp)
    8000031c:	6105                	addi	sp,sp,32
    8000031e:	8082                	ret
  switch(c){
    80000320:	07f00793          	li	a5,127
    80000324:	0af48e63          	beq	s1,a5,800003e0 <consoleintr+0x118>
    if(c != 0 && cons.e-cons.r < INPUT_BUF){
    80000328:	00012717          	auipc	a4,0x12
    8000032c:	4d870713          	addi	a4,a4,1240 # 80012800 <cons>
    80000330:	0a872783          	lw	a5,168(a4)
    80000334:	0a072703          	lw	a4,160(a4)
    80000338:	9f99                	subw	a5,a5,a4
    8000033a:	07f00713          	li	a4,127
    8000033e:	fcf763e3          	bltu	a4,a5,80000304 <consoleintr+0x3c>
      c = (c == '\r') ? '\n' : c;
    80000342:	47b5                	li	a5,13
    80000344:	0cf48763          	beq	s1,a5,80000412 <consoleintr+0x14a>
      consputc(c);
    80000348:	8526                	mv	a0,s1
    8000034a:	00000097          	auipc	ra,0x0
    8000034e:	ea8080e7          	jalr	-344(ra) # 800001f2 <consputc>
      cons.buf[cons.e++ % INPUT_BUF] = c;
    80000352:	00012797          	auipc	a5,0x12
    80000356:	4ae78793          	addi	a5,a5,1198 # 80012800 <cons>
    8000035a:	0a87a703          	lw	a4,168(a5)
    8000035e:	0017069b          	addiw	a3,a4,1
    80000362:	0006861b          	sext.w	a2,a3
    80000366:	0ad7a423          	sw	a3,168(a5)
    8000036a:	07f77713          	andi	a4,a4,127
    8000036e:	97ba                	add	a5,a5,a4
    80000370:	02978023          	sb	s1,32(a5)
      if(c == '\n' || c == C('D') || cons.e == cons.r+INPUT_BUF){
    80000374:	47a9                	li	a5,10
    80000376:	0cf48563          	beq	s1,a5,80000440 <consoleintr+0x178>
    8000037a:	4791                	li	a5,4
    8000037c:	0cf48263          	beq	s1,a5,80000440 <consoleintr+0x178>
    80000380:	00012797          	auipc	a5,0x12
    80000384:	5207a783          	lw	a5,1312(a5) # 800128a0 <cons+0xa0>
    80000388:	0807879b          	addiw	a5,a5,128
    8000038c:	f6f61ce3          	bne	a2,a5,80000304 <consoleintr+0x3c>
      cons.buf[cons.e++ % INPUT_BUF] = c;
    80000390:	863e                	mv	a2,a5
    80000392:	a07d                	j	80000440 <consoleintr+0x178>
    while(cons.e != cons.w &&
    80000394:	00012717          	auipc	a4,0x12
    80000398:	46c70713          	addi	a4,a4,1132 # 80012800 <cons>
    8000039c:	0a872783          	lw	a5,168(a4)
    800003a0:	0a472703          	lw	a4,164(a4)
          cons.buf[(cons.e-1) % INPUT_BUF] != '\n'){
    800003a4:	00012497          	auipc	s1,0x12
    800003a8:	45c48493          	addi	s1,s1,1116 # 80012800 <cons>
    while(cons.e != cons.w &&
    800003ac:	4929                	li	s2,10
    800003ae:	f4f70be3          	beq	a4,a5,80000304 <consoleintr+0x3c>
          cons.buf[(cons.e-1) % INPUT_BUF] != '\n'){
    800003b2:	37fd                	addiw	a5,a5,-1
    800003b4:	07f7f713          	andi	a4,a5,127
    800003b8:	9726                	add	a4,a4,s1
    while(cons.e != cons.w &&
    800003ba:	02074703          	lbu	a4,32(a4)
    800003be:	f52703e3          	beq	a4,s2,80000304 <consoleintr+0x3c>
      cons.e--;
    800003c2:	0af4a423          	sw	a5,168(s1)
      consputc(BACKSPACE);
    800003c6:	10000513          	li	a0,256
    800003ca:	00000097          	auipc	ra,0x0
    800003ce:	e28080e7          	jalr	-472(ra) # 800001f2 <consputc>
    while(cons.e != cons.w &&
    800003d2:	0a84a783          	lw	a5,168(s1)
    800003d6:	0a44a703          	lw	a4,164(s1)
    800003da:	fcf71ce3          	bne	a4,a5,800003b2 <consoleintr+0xea>
    800003de:	b71d                	j	80000304 <consoleintr+0x3c>
    if(cons.e != cons.w){
    800003e0:	00012717          	auipc	a4,0x12
    800003e4:	42070713          	addi	a4,a4,1056 # 80012800 <cons>
    800003e8:	0a872783          	lw	a5,168(a4)
    800003ec:	0a472703          	lw	a4,164(a4)
    800003f0:	f0f70ae3          	beq	a4,a5,80000304 <consoleintr+0x3c>
      cons.e--;
    800003f4:	37fd                	addiw	a5,a5,-1
    800003f6:	00012717          	auipc	a4,0x12
    800003fa:	4af72923          	sw	a5,1202(a4) # 800128a8 <cons+0xa8>
      consputc(BACKSPACE);
    800003fe:	10000513          	li	a0,256
    80000402:	00000097          	auipc	ra,0x0
    80000406:	df0080e7          	jalr	-528(ra) # 800001f2 <consputc>
    8000040a:	bded                	j	80000304 <consoleintr+0x3c>
    if(c != 0 && cons.e-cons.r < INPUT_BUF){
    8000040c:	ee048ce3          	beqz	s1,80000304 <consoleintr+0x3c>
    80000410:	bf21                	j	80000328 <consoleintr+0x60>
      consputc(c);
    80000412:	4529                	li	a0,10
    80000414:	00000097          	auipc	ra,0x0
    80000418:	dde080e7          	jalr	-546(ra) # 800001f2 <consputc>
      cons.buf[cons.e++ % INPUT_BUF] = c;
    8000041c:	00012797          	auipc	a5,0x12
    80000420:	3e478793          	addi	a5,a5,996 # 80012800 <cons>
    80000424:	0a87a703          	lw	a4,168(a5)
    80000428:	0017069b          	addiw	a3,a4,1
    8000042c:	0006861b          	sext.w	a2,a3
    80000430:	0ad7a423          	sw	a3,168(a5)
    80000434:	07f77713          	andi	a4,a4,127
    80000438:	97ba                	add	a5,a5,a4
    8000043a:	4729                	li	a4,10
    8000043c:	02e78023          	sb	a4,32(a5)
        cons.w = cons.e;
    80000440:	00012797          	auipc	a5,0x12
    80000444:	46c7a223          	sw	a2,1124(a5) # 800128a4 <cons+0xa4>
        wakeup(&cons.r);
    80000448:	00012517          	auipc	a0,0x12
    8000044c:	45850513          	addi	a0,a0,1112 # 800128a0 <cons+0xa0>
    80000450:	00002097          	auipc	ra,0x2
    80000454:	088080e7          	jalr	136(ra) # 800024d8 <wakeup>
    80000458:	b575                	j	80000304 <consoleintr+0x3c>

000000008000045a <consoleinit>:

void
consoleinit(void)
{
    8000045a:	1141                	addi	sp,sp,-16
    8000045c:	e406                	sd	ra,8(sp)
    8000045e:	e022                	sd	s0,0(sp)
    80000460:	0800                	addi	s0,sp,16
  initlock(&cons.lock, "cons");
    80000462:	00008597          	auipc	a1,0x8
    80000466:	cb658593          	addi	a1,a1,-842 # 80008118 <userret+0x88>
    8000046a:	00012517          	auipc	a0,0x12
    8000046e:	39650513          	addi	a0,a0,918 # 80012800 <cons>
    80000472:	00000097          	auipc	ra,0x0
    80000476:	66a080e7          	jalr	1642(ra) # 80000adc <initlock>

  uartinit();
    8000047a:	00000097          	auipc	ra,0x0
    8000047e:	33a080e7          	jalr	826(ra) # 800007b4 <uartinit>

  // connect read and write system calls
  // to consoleread and consolewrite.
  devsw[CONSOLE].read = consoleread;
    80000482:	00028797          	auipc	a5,0x28
    80000486:	09678793          	addi	a5,a5,150 # 80028518 <devsw>
    8000048a:	00000717          	auipc	a4,0x0
    8000048e:	c5670713          	addi	a4,a4,-938 # 800000e0 <consoleread>
    80000492:	eb98                	sd	a4,16(a5)
  devsw[CONSOLE].write = consolewrite;
    80000494:	00000717          	auipc	a4,0x0
    80000498:	dac70713          	addi	a4,a4,-596 # 80000240 <consolewrite>
    8000049c:	ef98                	sd	a4,24(a5)
}
    8000049e:	60a2                	ld	ra,8(sp)
    800004a0:	6402                	ld	s0,0(sp)
    800004a2:	0141                	addi	sp,sp,16
    800004a4:	8082                	ret

00000000800004a6 <printint>:

static char digits[] = "0123456789abcdef";

static void
printint(int xx, int base, int sign)
{
    800004a6:	7179                	addi	sp,sp,-48
    800004a8:	f406                	sd	ra,40(sp)
    800004aa:	f022                	sd	s0,32(sp)
    800004ac:	ec26                	sd	s1,24(sp)
    800004ae:	e84a                	sd	s2,16(sp)
    800004b0:	1800                	addi	s0,sp,48
  char buf[16];
  int i;
  uint x;

  if(sign && (sign = xx < 0))
    800004b2:	c219                	beqz	a2,800004b8 <printint+0x12>
    800004b4:	08054663          	bltz	a0,80000540 <printint+0x9a>
    x = -xx;
  else
    x = xx;
    800004b8:	2501                	sext.w	a0,a0
    800004ba:	4881                	li	a7,0
    800004bc:	fd040693          	addi	a3,s0,-48

  i = 0;
    800004c0:	4701                	li	a4,0
  do {
    buf[i++] = digits[x % base];
    800004c2:	2581                	sext.w	a1,a1
    800004c4:	00008617          	auipc	a2,0x8
    800004c8:	5ec60613          	addi	a2,a2,1516 # 80008ab0 <digits>
    800004cc:	883a                	mv	a6,a4
    800004ce:	2705                	addiw	a4,a4,1
    800004d0:	02b577bb          	remuw	a5,a0,a1
    800004d4:	1782                	slli	a5,a5,0x20
    800004d6:	9381                	srli	a5,a5,0x20
    800004d8:	97b2                	add	a5,a5,a2
    800004da:	0007c783          	lbu	a5,0(a5)
    800004de:	00f68023          	sb	a5,0(a3)
  } while((x /= base) != 0);
    800004e2:	0005079b          	sext.w	a5,a0
    800004e6:	02b5553b          	divuw	a0,a0,a1
    800004ea:	0685                	addi	a3,a3,1
    800004ec:	feb7f0e3          	bgeu	a5,a1,800004cc <printint+0x26>

  if(sign)
    800004f0:	00088b63          	beqz	a7,80000506 <printint+0x60>
    buf[i++] = '-';
    800004f4:	fe040793          	addi	a5,s0,-32
    800004f8:	973e                	add	a4,a4,a5
    800004fa:	02d00793          	li	a5,45
    800004fe:	fef70823          	sb	a5,-16(a4)
    80000502:	0028071b          	addiw	a4,a6,2

  while(--i >= 0)
    80000506:	02e05763          	blez	a4,80000534 <printint+0x8e>
    8000050a:	fd040793          	addi	a5,s0,-48
    8000050e:	00e784b3          	add	s1,a5,a4
    80000512:	fff78913          	addi	s2,a5,-1
    80000516:	993a                	add	s2,s2,a4
    80000518:	377d                	addiw	a4,a4,-1
    8000051a:	1702                	slli	a4,a4,0x20
    8000051c:	9301                	srli	a4,a4,0x20
    8000051e:	40e90933          	sub	s2,s2,a4
    consputc(buf[i]);
    80000522:	fff4c503          	lbu	a0,-1(s1)
    80000526:	00000097          	auipc	ra,0x0
    8000052a:	ccc080e7          	jalr	-820(ra) # 800001f2 <consputc>
  while(--i >= 0)
    8000052e:	14fd                	addi	s1,s1,-1
    80000530:	ff2499e3          	bne	s1,s2,80000522 <printint+0x7c>
}
    80000534:	70a2                	ld	ra,40(sp)
    80000536:	7402                	ld	s0,32(sp)
    80000538:	64e2                	ld	s1,24(sp)
    8000053a:	6942                	ld	s2,16(sp)
    8000053c:	6145                	addi	sp,sp,48
    8000053e:	8082                	ret
    x = -xx;
    80000540:	40a0053b          	negw	a0,a0
  if(sign && (sign = xx < 0))
    80000544:	4885                	li	a7,1
    x = -xx;
    80000546:	bf9d                	j	800004bc <printint+0x16>

0000000080000548 <panic>:
    release(&pr.lock);
}

void
panic(char *s)
{
    80000548:	1101                	addi	sp,sp,-32
    8000054a:	ec06                	sd	ra,24(sp)
    8000054c:	e822                	sd	s0,16(sp)
    8000054e:	e426                	sd	s1,8(sp)
    80000550:	1000                	addi	s0,sp,32
    80000552:	84aa                	mv	s1,a0
  pr.locking = 0;
    80000554:	00012797          	auipc	a5,0x12
    80000558:	3607ae23          	sw	zero,892(a5) # 800128d0 <pr+0x20>
  printf("PANIC: ");
    8000055c:	00008517          	auipc	a0,0x8
    80000560:	bc450513          	addi	a0,a0,-1084 # 80008120 <userret+0x90>
    80000564:	00000097          	auipc	ra,0x0
    80000568:	03e080e7          	jalr	62(ra) # 800005a2 <printf>
  printf(s);
    8000056c:	8526                	mv	a0,s1
    8000056e:	00000097          	auipc	ra,0x0
    80000572:	034080e7          	jalr	52(ra) # 800005a2 <printf>
  printf("\n");
    80000576:	00008517          	auipc	a0,0x8
    8000057a:	d1a50513          	addi	a0,a0,-742 # 80008290 <userret+0x200>
    8000057e:	00000097          	auipc	ra,0x0
    80000582:	024080e7          	jalr	36(ra) # 800005a2 <printf>
  printf("HINT: restart xv6 using 'make qemu-gdb', type 'b panic' (to set breakpoint in panic) in the gdb window, followed by 'c' (continue), and when the kernel hits the breakpoint, type 'bt' to get a backtrace\n");
    80000586:	00008517          	auipc	a0,0x8
    8000058a:	ba250513          	addi	a0,a0,-1118 # 80008128 <userret+0x98>
    8000058e:	00000097          	auipc	ra,0x0
    80000592:	014080e7          	jalr	20(ra) # 800005a2 <printf>
  panicked = 1; // freeze other CPUs
    80000596:	4785                	li	a5,1
    80000598:	00030717          	auipc	a4,0x30
    8000059c:	a8f72423          	sw	a5,-1400(a4) # 80030020 <panicked>
  for(;;)
    800005a0:	a001                	j	800005a0 <panic+0x58>

00000000800005a2 <printf>:
{
    800005a2:	7131                	addi	sp,sp,-192
    800005a4:	fc86                	sd	ra,120(sp)
    800005a6:	f8a2                	sd	s0,112(sp)
    800005a8:	f4a6                	sd	s1,104(sp)
    800005aa:	f0ca                	sd	s2,96(sp)
    800005ac:	ecce                	sd	s3,88(sp)
    800005ae:	e8d2                	sd	s4,80(sp)
    800005b0:	e4d6                	sd	s5,72(sp)
    800005b2:	e0da                	sd	s6,64(sp)
    800005b4:	fc5e                	sd	s7,56(sp)
    800005b6:	f862                	sd	s8,48(sp)
    800005b8:	f466                	sd	s9,40(sp)
    800005ba:	f06a                	sd	s10,32(sp)
    800005bc:	ec6e                	sd	s11,24(sp)
    800005be:	0100                	addi	s0,sp,128
    800005c0:	8a2a                	mv	s4,a0
    800005c2:	e40c                	sd	a1,8(s0)
    800005c4:	e810                	sd	a2,16(s0)
    800005c6:	ec14                	sd	a3,24(s0)
    800005c8:	f018                	sd	a4,32(s0)
    800005ca:	f41c                	sd	a5,40(s0)
    800005cc:	03043823          	sd	a6,48(s0)
    800005d0:	03143c23          	sd	a7,56(s0)
  locking = pr.locking;
    800005d4:	00012d97          	auipc	s11,0x12
    800005d8:	2fcdad83          	lw	s11,764(s11) # 800128d0 <pr+0x20>
  if(locking)
    800005dc:	020d9b63          	bnez	s11,80000612 <printf+0x70>
  if (fmt == 0)
    800005e0:	040a0263          	beqz	s4,80000624 <printf+0x82>
  va_start(ap, fmt);
    800005e4:	00840793          	addi	a5,s0,8
    800005e8:	f8f43423          	sd	a5,-120(s0)
  for(i = 0; (c = fmt[i] & 0xff) != 0; i++){
    800005ec:	000a4503          	lbu	a0,0(s4)
    800005f0:	14050f63          	beqz	a0,8000074e <printf+0x1ac>
    800005f4:	4981                	li	s3,0
    if(c != '%'){
    800005f6:	02500a93          	li	s5,37
    switch(c){
    800005fa:	07000b93          	li	s7,112
  consputc('x');
    800005fe:	4d41                	li	s10,16
    consputc(digits[x >> (sizeof(uint64) * 8 - 4)]);
    80000600:	00008b17          	auipc	s6,0x8
    80000604:	4b0b0b13          	addi	s6,s6,1200 # 80008ab0 <digits>
    switch(c){
    80000608:	07300c93          	li	s9,115
    8000060c:	06400c13          	li	s8,100
    80000610:	a82d                	j	8000064a <printf+0xa8>
    acquire(&pr.lock);
    80000612:	00012517          	auipc	a0,0x12
    80000616:	29e50513          	addi	a0,a0,670 # 800128b0 <pr>
    8000061a:	00000097          	auipc	ra,0x0
    8000061e:	610080e7          	jalr	1552(ra) # 80000c2a <acquire>
    80000622:	bf7d                	j	800005e0 <printf+0x3e>
    panic("null fmt");
    80000624:	00008517          	auipc	a0,0x8
    80000628:	bdc50513          	addi	a0,a0,-1060 # 80008200 <userret+0x170>
    8000062c:	00000097          	auipc	ra,0x0
    80000630:	f1c080e7          	jalr	-228(ra) # 80000548 <panic>
      consputc(c);
    80000634:	00000097          	auipc	ra,0x0
    80000638:	bbe080e7          	jalr	-1090(ra) # 800001f2 <consputc>
  for(i = 0; (c = fmt[i] & 0xff) != 0; i++){
    8000063c:	2985                	addiw	s3,s3,1
    8000063e:	013a07b3          	add	a5,s4,s3
    80000642:	0007c503          	lbu	a0,0(a5)
    80000646:	10050463          	beqz	a0,8000074e <printf+0x1ac>
    if(c != '%'){
    8000064a:	ff5515e3          	bne	a0,s5,80000634 <printf+0x92>
    c = fmt[++i] & 0xff;
    8000064e:	2985                	addiw	s3,s3,1
    80000650:	013a07b3          	add	a5,s4,s3
    80000654:	0007c783          	lbu	a5,0(a5)
    80000658:	0007849b          	sext.w	s1,a5
    if(c == 0)
    8000065c:	cbed                	beqz	a5,8000074e <printf+0x1ac>
    switch(c){
    8000065e:	05778a63          	beq	a5,s7,800006b2 <printf+0x110>
    80000662:	02fbf663          	bgeu	s7,a5,8000068e <printf+0xec>
    80000666:	09978863          	beq	a5,s9,800006f6 <printf+0x154>
    8000066a:	07800713          	li	a4,120
    8000066e:	0ce79563          	bne	a5,a4,80000738 <printf+0x196>
      printint(va_arg(ap, int), 16, 1);
    80000672:	f8843783          	ld	a5,-120(s0)
    80000676:	00878713          	addi	a4,a5,8
    8000067a:	f8e43423          	sd	a4,-120(s0)
    8000067e:	4605                	li	a2,1
    80000680:	85ea                	mv	a1,s10
    80000682:	4388                	lw	a0,0(a5)
    80000684:	00000097          	auipc	ra,0x0
    80000688:	e22080e7          	jalr	-478(ra) # 800004a6 <printint>
      break;
    8000068c:	bf45                	j	8000063c <printf+0x9a>
    switch(c){
    8000068e:	09578f63          	beq	a5,s5,8000072c <printf+0x18a>
    80000692:	0b879363          	bne	a5,s8,80000738 <printf+0x196>
      printint(va_arg(ap, int), 10, 1);
    80000696:	f8843783          	ld	a5,-120(s0)
    8000069a:	00878713          	addi	a4,a5,8
    8000069e:	f8e43423          	sd	a4,-120(s0)
    800006a2:	4605                	li	a2,1
    800006a4:	45a9                	li	a1,10
    800006a6:	4388                	lw	a0,0(a5)
    800006a8:	00000097          	auipc	ra,0x0
    800006ac:	dfe080e7          	jalr	-514(ra) # 800004a6 <printint>
      break;
    800006b0:	b771                	j	8000063c <printf+0x9a>
      printptr(va_arg(ap, uint64));
    800006b2:	f8843783          	ld	a5,-120(s0)
    800006b6:	00878713          	addi	a4,a5,8
    800006ba:	f8e43423          	sd	a4,-120(s0)
    800006be:	0007b903          	ld	s2,0(a5)
  consputc('0');
    800006c2:	03000513          	li	a0,48
    800006c6:	00000097          	auipc	ra,0x0
    800006ca:	b2c080e7          	jalr	-1236(ra) # 800001f2 <consputc>
  consputc('x');
    800006ce:	07800513          	li	a0,120
    800006d2:	00000097          	auipc	ra,0x0
    800006d6:	b20080e7          	jalr	-1248(ra) # 800001f2 <consputc>
    800006da:	84ea                	mv	s1,s10
    consputc(digits[x >> (sizeof(uint64) * 8 - 4)]);
    800006dc:	03c95793          	srli	a5,s2,0x3c
    800006e0:	97da                	add	a5,a5,s6
    800006e2:	0007c503          	lbu	a0,0(a5)
    800006e6:	00000097          	auipc	ra,0x0
    800006ea:	b0c080e7          	jalr	-1268(ra) # 800001f2 <consputc>
  for (i = 0; i < (sizeof(uint64) * 2); i++, x <<= 4)
    800006ee:	0912                	slli	s2,s2,0x4
    800006f0:	34fd                	addiw	s1,s1,-1
    800006f2:	f4ed                	bnez	s1,800006dc <printf+0x13a>
    800006f4:	b7a1                	j	8000063c <printf+0x9a>
      if((s = va_arg(ap, char*)) == 0)
    800006f6:	f8843783          	ld	a5,-120(s0)
    800006fa:	00878713          	addi	a4,a5,8
    800006fe:	f8e43423          	sd	a4,-120(s0)
    80000702:	6384                	ld	s1,0(a5)
    80000704:	cc89                	beqz	s1,8000071e <printf+0x17c>
      for(; *s; s++)
    80000706:	0004c503          	lbu	a0,0(s1)
    8000070a:	d90d                	beqz	a0,8000063c <printf+0x9a>
        consputc(*s);
    8000070c:	00000097          	auipc	ra,0x0
    80000710:	ae6080e7          	jalr	-1306(ra) # 800001f2 <consputc>
      for(; *s; s++)
    80000714:	0485                	addi	s1,s1,1
    80000716:	0004c503          	lbu	a0,0(s1)
    8000071a:	f96d                	bnez	a0,8000070c <printf+0x16a>
    8000071c:	b705                	j	8000063c <printf+0x9a>
        s = "(null)";
    8000071e:	00008497          	auipc	s1,0x8
    80000722:	ada48493          	addi	s1,s1,-1318 # 800081f8 <userret+0x168>
      for(; *s; s++)
    80000726:	02800513          	li	a0,40
    8000072a:	b7cd                	j	8000070c <printf+0x16a>
      consputc('%');
    8000072c:	8556                	mv	a0,s5
    8000072e:	00000097          	auipc	ra,0x0
    80000732:	ac4080e7          	jalr	-1340(ra) # 800001f2 <consputc>
      break;
    80000736:	b719                	j	8000063c <printf+0x9a>
      consputc('%');
    80000738:	8556                	mv	a0,s5
    8000073a:	00000097          	auipc	ra,0x0
    8000073e:	ab8080e7          	jalr	-1352(ra) # 800001f2 <consputc>
      consputc(c);
    80000742:	8526                	mv	a0,s1
    80000744:	00000097          	auipc	ra,0x0
    80000748:	aae080e7          	jalr	-1362(ra) # 800001f2 <consputc>
      break;
    8000074c:	bdc5                	j	8000063c <printf+0x9a>
  if(locking)
    8000074e:	020d9163          	bnez	s11,80000770 <printf+0x1ce>
}
    80000752:	70e6                	ld	ra,120(sp)
    80000754:	7446                	ld	s0,112(sp)
    80000756:	74a6                	ld	s1,104(sp)
    80000758:	7906                	ld	s2,96(sp)
    8000075a:	69e6                	ld	s3,88(sp)
    8000075c:	6a46                	ld	s4,80(sp)
    8000075e:	6aa6                	ld	s5,72(sp)
    80000760:	6b06                	ld	s6,64(sp)
    80000762:	7be2                	ld	s7,56(sp)
    80000764:	7c42                	ld	s8,48(sp)
    80000766:	7ca2                	ld	s9,40(sp)
    80000768:	7d02                	ld	s10,32(sp)
    8000076a:	6de2                	ld	s11,24(sp)
    8000076c:	6129                	addi	sp,sp,192
    8000076e:	8082                	ret
    release(&pr.lock);
    80000770:	00012517          	auipc	a0,0x12
    80000774:	14050513          	addi	a0,a0,320 # 800128b0 <pr>
    80000778:	00000097          	auipc	ra,0x0
    8000077c:	522080e7          	jalr	1314(ra) # 80000c9a <release>
}
    80000780:	bfc9                	j	80000752 <printf+0x1b0>

0000000080000782 <printfinit>:
    ;
}

void
printfinit(void)
{
    80000782:	1101                	addi	sp,sp,-32
    80000784:	ec06                	sd	ra,24(sp)
    80000786:	e822                	sd	s0,16(sp)
    80000788:	e426                	sd	s1,8(sp)
    8000078a:	1000                	addi	s0,sp,32
  initlock(&pr.lock, "pr");
    8000078c:	00012497          	auipc	s1,0x12
    80000790:	12448493          	addi	s1,s1,292 # 800128b0 <pr>
    80000794:	00008597          	auipc	a1,0x8
    80000798:	a7c58593          	addi	a1,a1,-1412 # 80008210 <userret+0x180>
    8000079c:	8526                	mv	a0,s1
    8000079e:	00000097          	auipc	ra,0x0
    800007a2:	33e080e7          	jalr	830(ra) # 80000adc <initlock>
  pr.locking = 1;
    800007a6:	4785                	li	a5,1
    800007a8:	d09c                	sw	a5,32(s1)
}
    800007aa:	60e2                	ld	ra,24(sp)
    800007ac:	6442                	ld	s0,16(sp)
    800007ae:	64a2                	ld	s1,8(sp)
    800007b0:	6105                	addi	sp,sp,32
    800007b2:	8082                	ret

00000000800007b4 <uartinit>:
#define ReadReg(reg) (*(Reg(reg)))
#define WriteReg(reg, v) (*(Reg(reg)) = (v))

void
uartinit(void)
{
    800007b4:	1141                	addi	sp,sp,-16
    800007b6:	e422                	sd	s0,8(sp)
    800007b8:	0800                	addi	s0,sp,16
  // disable interrupts.
  WriteReg(IER, 0x00);
    800007ba:	100007b7          	lui	a5,0x10000
    800007be:	000780a3          	sb	zero,1(a5) # 10000001 <_entry-0x6fffffff>

  // special mode to set baud rate.
  WriteReg(LCR, 0x80);
    800007c2:	f8000713          	li	a4,-128
    800007c6:	00e781a3          	sb	a4,3(a5)

  // LSB for baud rate of 38.4K.
  WriteReg(0, 0x03);
    800007ca:	470d                	li	a4,3
    800007cc:	00e78023          	sb	a4,0(a5)

  // MSB for baud rate of 38.4K.
  WriteReg(1, 0x00);
    800007d0:	000780a3          	sb	zero,1(a5)

  // leave set-baud mode,
  // and set word length to 8 bits, no parity.
  WriteReg(LCR, 0x03);
    800007d4:	00e781a3          	sb	a4,3(a5)

  // reset and enable FIFOs.
  WriteReg(FCR, 0x07);
    800007d8:	471d                	li	a4,7
    800007da:	00e78123          	sb	a4,2(a5)

  // enable receive interrupts.
  WriteReg(IER, 0x01);
    800007de:	4705                	li	a4,1
    800007e0:	00e780a3          	sb	a4,1(a5)
}
    800007e4:	6422                	ld	s0,8(sp)
    800007e6:	0141                	addi	sp,sp,16
    800007e8:	8082                	ret

00000000800007ea <uartputc>:

// write one output character to the UART.
void
uartputc(int c)
{
    800007ea:	1141                	addi	sp,sp,-16
    800007ec:	e422                	sd	s0,8(sp)
    800007ee:	0800                	addi	s0,sp,16
  // wait for Transmit Holding Empty to be set in LSR.
  while((ReadReg(LSR) & (1 << 5)) == 0)
    800007f0:	10000737          	lui	a4,0x10000
    800007f4:	00574783          	lbu	a5,5(a4) # 10000005 <_entry-0x6ffffffb>
    800007f8:	0207f793          	andi	a5,a5,32
    800007fc:	dfe5                	beqz	a5,800007f4 <uartputc+0xa>
    ;
  WriteReg(THR, c);
    800007fe:	0ff57513          	andi	a0,a0,255
    80000802:	100007b7          	lui	a5,0x10000
    80000806:	00a78023          	sb	a0,0(a5) # 10000000 <_entry-0x70000000>
}
    8000080a:	6422                	ld	s0,8(sp)
    8000080c:	0141                	addi	sp,sp,16
    8000080e:	8082                	ret

0000000080000810 <uartgetc>:

// read one input character from the UART.
// return -1 if none is waiting.
int
uartgetc(void)
{
    80000810:	1141                	addi	sp,sp,-16
    80000812:	e422                	sd	s0,8(sp)
    80000814:	0800                	addi	s0,sp,16
  if(ReadReg(LSR) & 0x01){
    80000816:	100007b7          	lui	a5,0x10000
    8000081a:	0057c783          	lbu	a5,5(a5) # 10000005 <_entry-0x6ffffffb>
    8000081e:	8b85                	andi	a5,a5,1
    80000820:	cb91                	beqz	a5,80000834 <uartgetc+0x24>
    // input data is ready.
    return ReadReg(RHR);
    80000822:	100007b7          	lui	a5,0x10000
    80000826:	0007c503          	lbu	a0,0(a5) # 10000000 <_entry-0x70000000>
    8000082a:	0ff57513          	andi	a0,a0,255
  } else {
    return -1;
  }
}
    8000082e:	6422                	ld	s0,8(sp)
    80000830:	0141                	addi	sp,sp,16
    80000832:	8082                	ret
    return -1;
    80000834:	557d                	li	a0,-1
    80000836:	bfe5                	j	8000082e <uartgetc+0x1e>

0000000080000838 <uartintr>:

// trap.c calls here when the uart interrupts.
void
uartintr(void)
{
    80000838:	1101                	addi	sp,sp,-32
    8000083a:	ec06                	sd	ra,24(sp)
    8000083c:	e822                	sd	s0,16(sp)
    8000083e:	e426                	sd	s1,8(sp)
    80000840:	1000                	addi	s0,sp,32
  while(1){
    int c = uartgetc();
    if(c == -1)
    80000842:	54fd                	li	s1,-1
    80000844:	a029                	j	8000084e <uartintr+0x16>
      break;
    consoleintr(c);
    80000846:	00000097          	auipc	ra,0x0
    8000084a:	a82080e7          	jalr	-1406(ra) # 800002c8 <consoleintr>
    int c = uartgetc();
    8000084e:	00000097          	auipc	ra,0x0
    80000852:	fc2080e7          	jalr	-62(ra) # 80000810 <uartgetc>
    if(c == -1)
    80000856:	fe9518e3          	bne	a0,s1,80000846 <uartintr+0xe>
  }
}
    8000085a:	60e2                	ld	ra,24(sp)
    8000085c:	6442                	ld	s0,16(sp)
    8000085e:	64a2                	ld	s1,8(sp)
    80000860:	6105                	addi	sp,sp,32
    80000862:	8082                	ret

0000000080000864 <kfree>:
// which normally should have been returned by a
// call to kalloc().  (The exception is when
// initializing the allocator; see kinit above.)
void
kfree(void *pa)
{
    80000864:	7139                	addi	sp,sp,-64
    80000866:	fc06                	sd	ra,56(sp)
    80000868:	f822                	sd	s0,48(sp)
    8000086a:	f426                	sd	s1,40(sp)
    8000086c:	f04a                	sd	s2,32(sp)
    8000086e:	ec4e                	sd	s3,24(sp)
    80000870:	e852                	sd	s4,16(sp)
    80000872:	e456                	sd	s5,8(sp)
    80000874:	0080                	addi	s0,sp,64
    80000876:	84aa                	mv	s1,a0
  //int id;
  int cpu_id;
  struct run *r;

  push_off();
    80000878:	00000097          	auipc	ra,0x0
    8000087c:	2ba080e7          	jalr	698(ra) # 80000b32 <push_off>
  cpu_id = cpuid();
    80000880:	00001097          	auipc	ra,0x1
    80000884:	2d6080e7          	jalr	726(ra) # 80001b56 <cpuid>
    80000888:	8a2a                	mv	s4,a0
  pop_off();
    8000088a:	00000097          	auipc	ra,0x0
    8000088e:	2f4080e7          	jalr	756(ra) # 80000b7e <pop_off>

  if(((uint64)pa % PGSIZE) != 0 || (char*)pa < end || (uint64)pa >= PHYSTOP)
    80000892:	03449793          	slli	a5,s1,0x34
    80000896:	e7a5                	bnez	a5,800008fe <kfree+0x9a>
    80000898:	0002f797          	auipc	a5,0x2f
    8000089c:	7c478793          	addi	a5,a5,1988 # 8003005c <end>
    800008a0:	04f4ef63          	bltu	s1,a5,800008fe <kfree+0x9a>
    800008a4:	47c5                	li	a5,17
    800008a6:	07ee                	slli	a5,a5,0x1b
    800008a8:	04f4fb63          	bgeu	s1,a5,800008fe <kfree+0x9a>
    panic("kfree");

  // Fill with junk to catch dangling refs.
  memset(pa, 1, PGSIZE);
    800008ac:	6605                	lui	a2,0x1
    800008ae:	4585                	li	a1,1
    800008b0:	8526                	mv	a0,s1
    800008b2:	00000097          	auipc	ra,0x0
    800008b6:	5e6080e7          	jalr	1510(ra) # 80000e98 <memset>

  r = (struct run*)pa;

  //id = (uint64)pa / ((PHYSTOP - (uint64)end) / NCPU);
  acquire(&kmems[cpu_id].lock);
    800008ba:	00012a97          	auipc	s5,0x12
    800008be:	01ea8a93          	addi	s5,s5,30 # 800128d8 <kmems>
    800008c2:	002a1993          	slli	s3,s4,0x2
    800008c6:	01498933          	add	s2,s3,s4
    800008ca:	090e                	slli	s2,s2,0x3
    800008cc:	9956                	add	s2,s2,s5
    800008ce:	854a                	mv	a0,s2
    800008d0:	00000097          	auipc	ra,0x0
    800008d4:	35a080e7          	jalr	858(ra) # 80000c2a <acquire>
  r->next = kmems[cpu_id].freelist;
    800008d8:	02093783          	ld	a5,32(s2)
    800008dc:	e09c                	sd	a5,0(s1)
  kmems[cpu_id].freelist = r;
    800008de:	02993023          	sd	s1,32(s2)
  release(&kmems[cpu_id].lock);
    800008e2:	854a                	mv	a0,s2
    800008e4:	00000097          	auipc	ra,0x0
    800008e8:	3b6080e7          	jalr	950(ra) # 80000c9a <release>
}
    800008ec:	70e2                	ld	ra,56(sp)
    800008ee:	7442                	ld	s0,48(sp)
    800008f0:	74a2                	ld	s1,40(sp)
    800008f2:	7902                	ld	s2,32(sp)
    800008f4:	69e2                	ld	s3,24(sp)
    800008f6:	6a42                	ld	s4,16(sp)
    800008f8:	6aa2                	ld	s5,8(sp)
    800008fa:	6121                	addi	sp,sp,64
    800008fc:	8082                	ret
    panic("kfree");
    800008fe:	00008517          	auipc	a0,0x8
    80000902:	91a50513          	addi	a0,a0,-1766 # 80008218 <userret+0x188>
    80000906:	00000097          	auipc	ra,0x0
    8000090a:	c42080e7          	jalr	-958(ra) # 80000548 <panic>

000000008000090e <freerange>:
{
    8000090e:	7179                	addi	sp,sp,-48
    80000910:	f406                	sd	ra,40(sp)
    80000912:	f022                	sd	s0,32(sp)
    80000914:	ec26                	sd	s1,24(sp)
    80000916:	e84a                	sd	s2,16(sp)
    80000918:	e44e                	sd	s3,8(sp)
    8000091a:	e052                	sd	s4,0(sp)
    8000091c:	1800                	addi	s0,sp,48
  p = (char*)PGROUNDUP((uint64)pa_start);
    8000091e:	6785                	lui	a5,0x1
    80000920:	fff78493          	addi	s1,a5,-1 # fff <_entry-0x7ffff001>
    80000924:	94aa                	add	s1,s1,a0
    80000926:	757d                	lui	a0,0xfffff
    80000928:	8ce9                	and	s1,s1,a0
  for(; p + PGSIZE <= (char*)pa_end; p += PGSIZE)
    8000092a:	94be                	add	s1,s1,a5
    8000092c:	0095ee63          	bltu	a1,s1,80000948 <freerange+0x3a>
    80000930:	892e                	mv	s2,a1
    kfree(p);
    80000932:	7a7d                	lui	s4,0xfffff
  for(; p + PGSIZE <= (char*)pa_end; p += PGSIZE)
    80000934:	6985                	lui	s3,0x1
    kfree(p);
    80000936:	01448533          	add	a0,s1,s4
    8000093a:	00000097          	auipc	ra,0x0
    8000093e:	f2a080e7          	jalr	-214(ra) # 80000864 <kfree>
  for(; p + PGSIZE <= (char*)pa_end; p += PGSIZE)
    80000942:	94ce                	add	s1,s1,s3
    80000944:	fe9979e3          	bgeu	s2,s1,80000936 <freerange+0x28>
}
    80000948:	70a2                	ld	ra,40(sp)
    8000094a:	7402                	ld	s0,32(sp)
    8000094c:	64e2                	ld	s1,24(sp)
    8000094e:	6942                	ld	s2,16(sp)
    80000950:	69a2                	ld	s3,8(sp)
    80000952:	6a02                	ld	s4,0(sp)
    80000954:	6145                	addi	sp,sp,48
    80000956:	8082                	ret

0000000080000958 <kinit>:
{
    80000958:	7179                	addi	sp,sp,-48
    8000095a:	f406                	sd	ra,40(sp)
    8000095c:	f022                	sd	s0,32(sp)
    8000095e:	ec26                	sd	s1,24(sp)
    80000960:	e84a                	sd	s2,16(sp)
    80000962:	e44e                	sd	s3,8(sp)
    80000964:	1800                	addi	s0,sp,48
  for(i = 0;i < NCPU;i++)
    80000966:	00012497          	auipc	s1,0x12
    8000096a:	f7248493          	addi	s1,s1,-142 # 800128d8 <kmems>
    8000096e:	00012997          	auipc	s3,0x12
    80000972:	0aa98993          	addi	s3,s3,170 # 80012a18 <locks>
    initlock(&kmems[i].lock, "kmem");
    80000976:	00008917          	auipc	s2,0x8
    8000097a:	8aa90913          	addi	s2,s2,-1878 # 80008220 <userret+0x190>
    8000097e:	85ca                	mv	a1,s2
    80000980:	8526                	mv	a0,s1
    80000982:	00000097          	auipc	ra,0x0
    80000986:	15a080e7          	jalr	346(ra) # 80000adc <initlock>
  for(i = 0;i < NCPU;i++)
    8000098a:	02848493          	addi	s1,s1,40
    8000098e:	ff3498e3          	bne	s1,s3,8000097e <kinit+0x26>
  freerange(end, (void*)PHYSTOP);   //把空闲内存加到链表里
    80000992:	45c5                	li	a1,17
    80000994:	05ee                	slli	a1,a1,0x1b
    80000996:	0002f517          	auipc	a0,0x2f
    8000099a:	6c650513          	addi	a0,a0,1734 # 8003005c <end>
    8000099e:	00000097          	auipc	ra,0x0
    800009a2:	f70080e7          	jalr	-144(ra) # 8000090e <freerange>
}
    800009a6:	70a2                	ld	ra,40(sp)
    800009a8:	7402                	ld	s0,32(sp)
    800009aa:	64e2                	ld	s1,24(sp)
    800009ac:	6942                	ld	s2,16(sp)
    800009ae:	69a2                	ld	s3,8(sp)
    800009b0:	6145                	addi	sp,sp,48
    800009b2:	8082                	ret

00000000800009b4 <ksteal>:

void *
ksteal(int cpu_id)
{
    800009b4:	7139                	addi	sp,sp,-64
    800009b6:	fc06                	sd	ra,56(sp)
    800009b8:	f822                	sd	s0,48(sp)
    800009ba:	f426                	sd	s1,40(sp)
    800009bc:	f04a                	sd	s2,32(sp)
    800009be:	ec4e                	sd	s3,24(sp)
    800009c0:	e852                	sd	s4,16(sp)
    800009c2:	e456                	sd	s5,8(sp)
    800009c4:	0080                	addi	s0,sp,64
  int id;
  struct run *r = 0;

  for(id = 0;id < NCPU;id++){
    800009c6:	00012497          	auipc	s1,0x12
    800009ca:	f1248493          	addi	s1,s1,-238 # 800128d8 <kmems>
    800009ce:	4901                	li	s2,0
    800009d0:	4aa1                	li	s5,8
    800009d2:	a80d                	j	80000a04 <ksteal+0x50>
      continue;
    
    acquire(&kmems[id].lock);
    if(kmems[id].freelist){       //list还有剩余空间
      r = kmems[id].freelist;
      kmems[id].freelist = r->next;
    800009d4:	000a3703          	ld	a4,0(s4) # fffffffffffff000 <end+0xffffffff7ffcefa4>
    800009d8:	00291793          	slli	a5,s2,0x2
    800009dc:	993e                	add	s2,s2,a5
    800009de:	090e                	slli	s2,s2,0x3
    800009e0:	00012797          	auipc	a5,0x12
    800009e4:	ef878793          	addi	a5,a5,-264 # 800128d8 <kmems>
    800009e8:	993e                	add	s2,s2,a5
    800009ea:	02e93023          	sd	a4,32(s2)
      release(&kmems[id].lock);
    800009ee:	8526                	mv	a0,s1
    800009f0:	00000097          	auipc	ra,0x0
    800009f4:	2aa080e7          	jalr	682(ra) # 80000c9a <release>
      return (void*)r;
    800009f8:	a825                	j	80000a30 <ksteal+0x7c>
  for(id = 0;id < NCPU;id++){
    800009fa:	2905                	addiw	s2,s2,1
    800009fc:	02848493          	addi	s1,s1,40
    80000a00:	03590763          	beq	s2,s5,80000a2e <ksteal+0x7a>
    if(holding(&kmems[id].lock))    //找到未锁上的list
    80000a04:	8526                	mv	a0,s1
    80000a06:	00000097          	auipc	ra,0x0
    80000a0a:	1e4080e7          	jalr	484(ra) # 80000bea <holding>
    80000a0e:	f575                	bnez	a0,800009fa <ksteal+0x46>
    acquire(&kmems[id].lock);
    80000a10:	8526                	mv	a0,s1
    80000a12:	00000097          	auipc	ra,0x0
    80000a16:	218080e7          	jalr	536(ra) # 80000c2a <acquire>
    if(kmems[id].freelist){       //list还有剩余空间
    80000a1a:	0204ba03          	ld	s4,32(s1)
    80000a1e:	fa0a1be3          	bnez	s4,800009d4 <ksteal+0x20>
    }
    release(&kmems[id].lock);
    80000a22:	8526                	mv	a0,s1
    80000a24:	00000097          	auipc	ra,0x0
    80000a28:	276080e7          	jalr	630(ra) # 80000c9a <release>
    80000a2c:	b7f9                	j	800009fa <ksteal+0x46>
  }
  return (void*)r;
    80000a2e:	4a01                	li	s4,0
}
    80000a30:	8552                	mv	a0,s4
    80000a32:	70e2                	ld	ra,56(sp)
    80000a34:	7442                	ld	s0,48(sp)
    80000a36:	74a2                	ld	s1,40(sp)
    80000a38:	7902                	ld	s2,32(sp)
    80000a3a:	69e2                	ld	s3,24(sp)
    80000a3c:	6a42                	ld	s4,16(sp)
    80000a3e:	6aa2                	ld	s5,8(sp)
    80000a40:	6121                	addi	sp,sp,64
    80000a42:	8082                	ret

0000000080000a44 <kalloc>:
// Allocate one 4096-byte page of physical memory.
// Returns a pointer that the kernel can use.
// Returns 0 if the memory cannot be allocated.
void *
kalloc(void)
{
    80000a44:	7179                	addi	sp,sp,-48
    80000a46:	f406                	sd	ra,40(sp)
    80000a48:	f022                	sd	s0,32(sp)
    80000a4a:	ec26                	sd	s1,24(sp)
    80000a4c:	e84a                	sd	s2,16(sp)
    80000a4e:	e44e                	sd	s3,8(sp)
    80000a50:	1800                	addi	s0,sp,48
  int cpu_id;
  struct run *r;

  push_off();
    80000a52:	00000097          	auipc	ra,0x0
    80000a56:	0e0080e7          	jalr	224(ra) # 80000b32 <push_off>
  cpu_id = cpuid();
    80000a5a:	00001097          	auipc	ra,0x1
    80000a5e:	0fc080e7          	jalr	252(ra) # 80001b56 <cpuid>
    80000a62:	84aa                	mv	s1,a0
  pop_off();
    80000a64:	00000097          	auipc	ra,0x0
    80000a68:	11a080e7          	jalr	282(ra) # 80000b7e <pop_off>

  acquire(&kmems[cpu_id].lock);
    80000a6c:	00249913          	slli	s2,s1,0x2
    80000a70:	9926                	add	s2,s2,s1
    80000a72:	00391793          	slli	a5,s2,0x3
    80000a76:	00012917          	auipc	s2,0x12
    80000a7a:	e6290913          	addi	s2,s2,-414 # 800128d8 <kmems>
    80000a7e:	993e                	add	s2,s2,a5
    80000a80:	854a                	mv	a0,s2
    80000a82:	00000097          	auipc	ra,0x0
    80000a86:	1a8080e7          	jalr	424(ra) # 80000c2a <acquire>
  r = kmems[cpu_id].freelist;
    80000a8a:	02093983          	ld	s3,32(s2)
  if(r)       //当前list仍有空间
    80000a8e:	02098a63          	beqz	s3,80000ac2 <kalloc+0x7e>
    kmems[cpu_id].freelist = r->next;
    80000a92:	0009b703          	ld	a4,0(s3)
    80000a96:	02e93023          	sd	a4,32(s2)
  release(&kmems[cpu_id].lock);
    80000a9a:	854a                	mv	a0,s2
    80000a9c:	00000097          	auipc	ra,0x0
    80000aa0:	1fe080e7          	jalr	510(ra) # 80000c9a <release>

  if(!r)      //当前list已满，要窃取空间
    r = ksteal(cpu_id);

  if(r)
    memset((char*)r, 5, PGSIZE); // fill with junk
    80000aa4:	6605                	lui	a2,0x1
    80000aa6:	4595                	li	a1,5
    80000aa8:	854e                	mv	a0,s3
    80000aaa:	00000097          	auipc	ra,0x0
    80000aae:	3ee080e7          	jalr	1006(ra) # 80000e98 <memset>
  return (void*)r;
}
    80000ab2:	854e                	mv	a0,s3
    80000ab4:	70a2                	ld	ra,40(sp)
    80000ab6:	7402                	ld	s0,32(sp)
    80000ab8:	64e2                	ld	s1,24(sp)
    80000aba:	6942                	ld	s2,16(sp)
    80000abc:	69a2                	ld	s3,8(sp)
    80000abe:	6145                	addi	sp,sp,48
    80000ac0:	8082                	ret
  release(&kmems[cpu_id].lock);
    80000ac2:	854a                	mv	a0,s2
    80000ac4:	00000097          	auipc	ra,0x0
    80000ac8:	1d6080e7          	jalr	470(ra) # 80000c9a <release>
    r = ksteal(cpu_id);
    80000acc:	8526                	mv	a0,s1
    80000ace:	00000097          	auipc	ra,0x0
    80000ad2:	ee6080e7          	jalr	-282(ra) # 800009b4 <ksteal>
    80000ad6:	89aa                	mv	s3,a0
  if(r)
    80000ad8:	dd69                	beqz	a0,80000ab2 <kalloc+0x6e>
    80000ada:	b7e9                	j	80000aa4 <kalloc+0x60>

0000000080000adc <initlock>:

// assumes locks are not freed
void
initlock(struct spinlock *lk, char *name)
{
  lk->name = name;
    80000adc:	e50c                	sd	a1,8(a0)
  lk->locked = 0;
    80000ade:	00052023          	sw	zero,0(a0)
  lk->cpu = 0;
    80000ae2:	00053823          	sd	zero,16(a0)
  lk->nts = 0;
    80000ae6:	00052e23          	sw	zero,28(a0)
  lk->n = 0;
    80000aea:	00052c23          	sw	zero,24(a0)
  if(nlock >= NLOCK)
    80000aee:	0002f797          	auipc	a5,0x2f
    80000af2:	5367a783          	lw	a5,1334(a5) # 80030024 <nlock>
    80000af6:	3e700713          	li	a4,999
    80000afa:	02f74063          	blt	a4,a5,80000b1a <initlock+0x3e>
    panic("initlock");
  locks[nlock] = lk;
    80000afe:	00379693          	slli	a3,a5,0x3
    80000b02:	00012717          	auipc	a4,0x12
    80000b06:	f1670713          	addi	a4,a4,-234 # 80012a18 <locks>
    80000b0a:	9736                	add	a4,a4,a3
    80000b0c:	e308                	sd	a0,0(a4)
  nlock++;
    80000b0e:	2785                	addiw	a5,a5,1
    80000b10:	0002f717          	auipc	a4,0x2f
    80000b14:	50f72a23          	sw	a5,1300(a4) # 80030024 <nlock>
    80000b18:	8082                	ret
{
    80000b1a:	1141                	addi	sp,sp,-16
    80000b1c:	e406                	sd	ra,8(sp)
    80000b1e:	e022                	sd	s0,0(sp)
    80000b20:	0800                	addi	s0,sp,16
    panic("initlock");
    80000b22:	00007517          	auipc	a0,0x7
    80000b26:	70650513          	addi	a0,a0,1798 # 80008228 <userret+0x198>
    80000b2a:	00000097          	auipc	ra,0x0
    80000b2e:	a1e080e7          	jalr	-1506(ra) # 80000548 <panic>

0000000080000b32 <push_off>:
// it takes two pop_off()s to undo two push_off()s.  Also, if interrupts
// are initially off, then push_off, pop_off leaves them off.

void
push_off(void)
{
    80000b32:	1101                	addi	sp,sp,-32
    80000b34:	ec06                	sd	ra,24(sp)
    80000b36:	e822                	sd	s0,16(sp)
    80000b38:	e426                	sd	s1,8(sp)
    80000b3a:	1000                	addi	s0,sp,32
  asm volatile("csrr %0, sstatus" : "=r" (x) );
    80000b3c:	100024f3          	csrr	s1,sstatus
    80000b40:	100027f3          	csrr	a5,sstatus
  w_sstatus(r_sstatus() & ~SSTATUS_SIE);
    80000b44:	9bf5                	andi	a5,a5,-3
  asm volatile("csrw sstatus, %0" : : "r" (x));
    80000b46:	10079073          	csrw	sstatus,a5
  int old = intr_get();

  intr_off();
  if(mycpu()->noff == 0)
    80000b4a:	00001097          	auipc	ra,0x1
    80000b4e:	01c080e7          	jalr	28(ra) # 80001b66 <mycpu>
    80000b52:	5d3c                	lw	a5,120(a0)
    80000b54:	cf89                	beqz	a5,80000b6e <push_off+0x3c>
    mycpu()->intena = old;
  mycpu()->noff += 1;
    80000b56:	00001097          	auipc	ra,0x1
    80000b5a:	010080e7          	jalr	16(ra) # 80001b66 <mycpu>
    80000b5e:	5d3c                	lw	a5,120(a0)
    80000b60:	2785                	addiw	a5,a5,1
    80000b62:	dd3c                	sw	a5,120(a0)
}
    80000b64:	60e2                	ld	ra,24(sp)
    80000b66:	6442                	ld	s0,16(sp)
    80000b68:	64a2                	ld	s1,8(sp)
    80000b6a:	6105                	addi	sp,sp,32
    80000b6c:	8082                	ret
    mycpu()->intena = old;
    80000b6e:	00001097          	auipc	ra,0x1
    80000b72:	ff8080e7          	jalr	-8(ra) # 80001b66 <mycpu>
  return (x & SSTATUS_SIE) != 0;
    80000b76:	8085                	srli	s1,s1,0x1
    80000b78:	8885                	andi	s1,s1,1
    80000b7a:	dd64                	sw	s1,124(a0)
    80000b7c:	bfe9                	j	80000b56 <push_off+0x24>

0000000080000b7e <pop_off>:

void
pop_off(void)
{
    80000b7e:	1141                	addi	sp,sp,-16
    80000b80:	e406                	sd	ra,8(sp)
    80000b82:	e022                	sd	s0,0(sp)
    80000b84:	0800                	addi	s0,sp,16
  struct cpu *c = mycpu();
    80000b86:	00001097          	auipc	ra,0x1
    80000b8a:	fe0080e7          	jalr	-32(ra) # 80001b66 <mycpu>
  asm volatile("csrr %0, sstatus" : "=r" (x) );
    80000b8e:	100027f3          	csrr	a5,sstatus
  return (x & SSTATUS_SIE) != 0;
    80000b92:	8b89                	andi	a5,a5,2
  if(intr_get())
    80000b94:	eb9d                	bnez	a5,80000bca <pop_off+0x4c>
    panic("pop_off - interruptible");
  c->noff -= 1;
    80000b96:	5d3c                	lw	a5,120(a0)
    80000b98:	37fd                	addiw	a5,a5,-1
    80000b9a:	0007871b          	sext.w	a4,a5
    80000b9e:	dd3c                	sw	a5,120(a0)
  if(c->noff < 0)
    80000ba0:	02074d63          	bltz	a4,80000bda <pop_off+0x5c>
    panic("pop_off");
  if(c->noff == 0 && c->intena)
    80000ba4:	ef19                	bnez	a4,80000bc2 <pop_off+0x44>
    80000ba6:	5d7c                	lw	a5,124(a0)
    80000ba8:	cf89                	beqz	a5,80000bc2 <pop_off+0x44>
  asm volatile("csrr %0, sie" : "=r" (x) );
    80000baa:	104027f3          	csrr	a5,sie
  w_sie(r_sie() | SIE_SEIE | SIE_STIE | SIE_SSIE);
    80000bae:	2227e793          	ori	a5,a5,546
  asm volatile("csrw sie, %0" : : "r" (x));
    80000bb2:	10479073          	csrw	sie,a5
  asm volatile("csrr %0, sstatus" : "=r" (x) );
    80000bb6:	100027f3          	csrr	a5,sstatus
  w_sstatus(r_sstatus() | SSTATUS_SIE);
    80000bba:	0027e793          	ori	a5,a5,2
  asm volatile("csrw sstatus, %0" : : "r" (x));
    80000bbe:	10079073          	csrw	sstatus,a5
    intr_on();
}
    80000bc2:	60a2                	ld	ra,8(sp)
    80000bc4:	6402                	ld	s0,0(sp)
    80000bc6:	0141                	addi	sp,sp,16
    80000bc8:	8082                	ret
    panic("pop_off - interruptible");
    80000bca:	00007517          	auipc	a0,0x7
    80000bce:	66e50513          	addi	a0,a0,1646 # 80008238 <userret+0x1a8>
    80000bd2:	00000097          	auipc	ra,0x0
    80000bd6:	976080e7          	jalr	-1674(ra) # 80000548 <panic>
    panic("pop_off");
    80000bda:	00007517          	auipc	a0,0x7
    80000bde:	67650513          	addi	a0,a0,1654 # 80008250 <userret+0x1c0>
    80000be2:	00000097          	auipc	ra,0x0
    80000be6:	966080e7          	jalr	-1690(ra) # 80000548 <panic>

0000000080000bea <holding>:
{
    80000bea:	1101                	addi	sp,sp,-32
    80000bec:	ec06                	sd	ra,24(sp)
    80000bee:	e822                	sd	s0,16(sp)
    80000bf0:	e426                	sd	s1,8(sp)
    80000bf2:	1000                	addi	s0,sp,32
    80000bf4:	84aa                	mv	s1,a0
  push_off();
    80000bf6:	00000097          	auipc	ra,0x0
    80000bfa:	f3c080e7          	jalr	-196(ra) # 80000b32 <push_off>
  r = (lk->locked && lk->cpu == mycpu());
    80000bfe:	409c                	lw	a5,0(s1)
    80000c00:	ef81                	bnez	a5,80000c18 <holding+0x2e>
    80000c02:	4481                	li	s1,0
  pop_off();
    80000c04:	00000097          	auipc	ra,0x0
    80000c08:	f7a080e7          	jalr	-134(ra) # 80000b7e <pop_off>
}
    80000c0c:	8526                	mv	a0,s1
    80000c0e:	60e2                	ld	ra,24(sp)
    80000c10:	6442                	ld	s0,16(sp)
    80000c12:	64a2                	ld	s1,8(sp)
    80000c14:	6105                	addi	sp,sp,32
    80000c16:	8082                	ret
  r = (lk->locked && lk->cpu == mycpu());
    80000c18:	6884                	ld	s1,16(s1)
    80000c1a:	00001097          	auipc	ra,0x1
    80000c1e:	f4c080e7          	jalr	-180(ra) # 80001b66 <mycpu>
    80000c22:	8c89                	sub	s1,s1,a0
    80000c24:	0014b493          	seqz	s1,s1
    80000c28:	bff1                	j	80000c04 <holding+0x1a>

0000000080000c2a <acquire>:
{
    80000c2a:	1101                	addi	sp,sp,-32
    80000c2c:	ec06                	sd	ra,24(sp)
    80000c2e:	e822                	sd	s0,16(sp)
    80000c30:	e426                	sd	s1,8(sp)
    80000c32:	1000                	addi	s0,sp,32
    80000c34:	84aa                	mv	s1,a0
  push_off(); // disable interrupts to avoid deadlock.
    80000c36:	00000097          	auipc	ra,0x0
    80000c3a:	efc080e7          	jalr	-260(ra) # 80000b32 <push_off>
  if(holding(lk))
    80000c3e:	8526                	mv	a0,s1
    80000c40:	00000097          	auipc	ra,0x0
    80000c44:	faa080e7          	jalr	-86(ra) # 80000bea <holding>
    80000c48:	e911                	bnez	a0,80000c5c <acquire+0x32>
  __sync_fetch_and_add(&(lk->n), 1);
    80000c4a:	4785                	li	a5,1
    80000c4c:	01848713          	addi	a4,s1,24
    80000c50:	0f50000f          	fence	iorw,ow
    80000c54:	04f7202f          	amoadd.w.aq	zero,a5,(a4)
  while(__sync_lock_test_and_set(&lk->locked, 1) != 0) {
    80000c58:	4705                	li	a4,1
    80000c5a:	a839                	j	80000c78 <acquire+0x4e>
    panic("acquire");
    80000c5c:	00007517          	auipc	a0,0x7
    80000c60:	5fc50513          	addi	a0,a0,1532 # 80008258 <userret+0x1c8>
    80000c64:	00000097          	auipc	ra,0x0
    80000c68:	8e4080e7          	jalr	-1820(ra) # 80000548 <panic>
     __sync_fetch_and_add(&lk->nts, 1);
    80000c6c:	01c48793          	addi	a5,s1,28
    80000c70:	0f50000f          	fence	iorw,ow
    80000c74:	04e7a02f          	amoadd.w.aq	zero,a4,(a5)
  while(__sync_lock_test_and_set(&lk->locked, 1) != 0) {
    80000c78:	87ba                	mv	a5,a4
    80000c7a:	0cf4a7af          	amoswap.w.aq	a5,a5,(s1)
    80000c7e:	2781                	sext.w	a5,a5
    80000c80:	f7f5                	bnez	a5,80000c6c <acquire+0x42>
  __sync_synchronize();
    80000c82:	0ff0000f          	fence
  lk->cpu = mycpu();
    80000c86:	00001097          	auipc	ra,0x1
    80000c8a:	ee0080e7          	jalr	-288(ra) # 80001b66 <mycpu>
    80000c8e:	e888                	sd	a0,16(s1)
}
    80000c90:	60e2                	ld	ra,24(sp)
    80000c92:	6442                	ld	s0,16(sp)
    80000c94:	64a2                	ld	s1,8(sp)
    80000c96:	6105                	addi	sp,sp,32
    80000c98:	8082                	ret

0000000080000c9a <release>:
{
    80000c9a:	1101                	addi	sp,sp,-32
    80000c9c:	ec06                	sd	ra,24(sp)
    80000c9e:	e822                	sd	s0,16(sp)
    80000ca0:	e426                	sd	s1,8(sp)
    80000ca2:	1000                	addi	s0,sp,32
    80000ca4:	84aa                	mv	s1,a0
  if(!holding(lk))
    80000ca6:	00000097          	auipc	ra,0x0
    80000caa:	f44080e7          	jalr	-188(ra) # 80000bea <holding>
    80000cae:	c115                	beqz	a0,80000cd2 <release+0x38>
  lk->cpu = 0;
    80000cb0:	0004b823          	sd	zero,16(s1)
  __sync_synchronize();
    80000cb4:	0ff0000f          	fence
  __sync_lock_release(&lk->locked);
    80000cb8:	0f50000f          	fence	iorw,ow
    80000cbc:	0804a02f          	amoswap.w	zero,zero,(s1)
  pop_off();
    80000cc0:	00000097          	auipc	ra,0x0
    80000cc4:	ebe080e7          	jalr	-322(ra) # 80000b7e <pop_off>
}
    80000cc8:	60e2                	ld	ra,24(sp)
    80000cca:	6442                	ld	s0,16(sp)
    80000ccc:	64a2                	ld	s1,8(sp)
    80000cce:	6105                	addi	sp,sp,32
    80000cd0:	8082                	ret
    panic("release");
    80000cd2:	00007517          	auipc	a0,0x7
    80000cd6:	58e50513          	addi	a0,a0,1422 # 80008260 <userret+0x1d0>
    80000cda:	00000097          	auipc	ra,0x0
    80000cde:	86e080e7          	jalr	-1938(ra) # 80000548 <panic>

0000000080000ce2 <print_lock>:

void
print_lock(struct spinlock *lk)
{
  if(lk->n > 0) 
    80000ce2:	4d14                	lw	a3,24(a0)
    80000ce4:	e291                	bnez	a3,80000ce8 <print_lock+0x6>
    80000ce6:	8082                	ret
{
    80000ce8:	1141                	addi	sp,sp,-16
    80000cea:	e406                	sd	ra,8(sp)
    80000cec:	e022                	sd	s0,0(sp)
    80000cee:	0800                	addi	s0,sp,16
    printf("lock: %s: #test-and-set %d #acquire() %d\n", lk->name, lk->nts, lk->n);
    80000cf0:	4d50                	lw	a2,28(a0)
    80000cf2:	650c                	ld	a1,8(a0)
    80000cf4:	00007517          	auipc	a0,0x7
    80000cf8:	57450513          	addi	a0,a0,1396 # 80008268 <userret+0x1d8>
    80000cfc:	00000097          	auipc	ra,0x0
    80000d00:	8a6080e7          	jalr	-1882(ra) # 800005a2 <printf>
}
    80000d04:	60a2                	ld	ra,8(sp)
    80000d06:	6402                	ld	s0,0(sp)
    80000d08:	0141                	addi	sp,sp,16
    80000d0a:	8082                	ret

0000000080000d0c <sys_ntas>:

uint64
sys_ntas(void)
{
    80000d0c:	711d                	addi	sp,sp,-96
    80000d0e:	ec86                	sd	ra,88(sp)
    80000d10:	e8a2                	sd	s0,80(sp)
    80000d12:	e4a6                	sd	s1,72(sp)
    80000d14:	e0ca                	sd	s2,64(sp)
    80000d16:	fc4e                	sd	s3,56(sp)
    80000d18:	f852                	sd	s4,48(sp)
    80000d1a:	f456                	sd	s5,40(sp)
    80000d1c:	f05a                	sd	s6,32(sp)
    80000d1e:	ec5e                	sd	s7,24(sp)
    80000d20:	e862                	sd	s8,16(sp)
    80000d22:	1080                	addi	s0,sp,96
  int zero = 0;
    80000d24:	fa042623          	sw	zero,-84(s0)
  int tot = 0;
  
  if (argint(0, &zero) < 0) {
    80000d28:	fac40593          	addi	a1,s0,-84
    80000d2c:	4501                	li	a0,0
    80000d2e:	00002097          	auipc	ra,0x2
    80000d32:	ece080e7          	jalr	-306(ra) # 80002bfc <argint>
    80000d36:	14054d63          	bltz	a0,80000e90 <sys_ntas+0x184>
    return -1;
  }
  if(zero == 0) {
    80000d3a:	fac42783          	lw	a5,-84(s0)
    80000d3e:	e78d                	bnez	a5,80000d68 <sys_ntas+0x5c>
    80000d40:	00012797          	auipc	a5,0x12
    80000d44:	cd878793          	addi	a5,a5,-808 # 80012a18 <locks>
    80000d48:	00014697          	auipc	a3,0x14
    80000d4c:	c1068693          	addi	a3,a3,-1008 # 80014958 <pid_lock>
    for(int i = 0; i < NLOCK; i++) {
      if(locks[i] == 0)
    80000d50:	6398                	ld	a4,0(a5)
    80000d52:	14070163          	beqz	a4,80000e94 <sys_ntas+0x188>
        break;
      locks[i]->nts = 0;
    80000d56:	00072e23          	sw	zero,28(a4)
      locks[i]->n = 0;
    80000d5a:	00072c23          	sw	zero,24(a4)
    for(int i = 0; i < NLOCK; i++) {
    80000d5e:	07a1                	addi	a5,a5,8
    80000d60:	fed798e3          	bne	a5,a3,80000d50 <sys_ntas+0x44>
    }
    return 0;
    80000d64:	4501                	li	a0,0
    80000d66:	aa09                	j	80000e78 <sys_ntas+0x16c>
  }

  printf("=== lock kmem/bcache stats\n");
    80000d68:	00007517          	auipc	a0,0x7
    80000d6c:	53050513          	addi	a0,a0,1328 # 80008298 <userret+0x208>
    80000d70:	00000097          	auipc	ra,0x0
    80000d74:	832080e7          	jalr	-1998(ra) # 800005a2 <printf>
  for(int i = 0; i < NLOCK; i++) {
    80000d78:	00012b17          	auipc	s6,0x12
    80000d7c:	ca0b0b13          	addi	s6,s6,-864 # 80012a18 <locks>
    80000d80:	00014b97          	auipc	s7,0x14
    80000d84:	bd8b8b93          	addi	s7,s7,-1064 # 80014958 <pid_lock>
  printf("=== lock kmem/bcache stats\n");
    80000d88:	84da                	mv	s1,s6
  int tot = 0;
    80000d8a:	4981                	li	s3,0
    if(locks[i] == 0)
      break;
    if(strncmp(locks[i]->name, "bcache", strlen("bcache")) == 0 ||
    80000d8c:	00007a17          	auipc	s4,0x7
    80000d90:	52ca0a13          	addi	s4,s4,1324 # 800082b8 <userret+0x228>
       strncmp(locks[i]->name, "kmem", strlen("kmem")) == 0) {
    80000d94:	00007c17          	auipc	s8,0x7
    80000d98:	48cc0c13          	addi	s8,s8,1164 # 80008220 <userret+0x190>
    80000d9c:	a829                	j	80000db6 <sys_ntas+0xaa>
      tot += locks[i]->nts;
    80000d9e:	00093503          	ld	a0,0(s2)
    80000da2:	4d5c                	lw	a5,28(a0)
    80000da4:	013789bb          	addw	s3,a5,s3
      print_lock(locks[i]);
    80000da8:	00000097          	auipc	ra,0x0
    80000dac:	f3a080e7          	jalr	-198(ra) # 80000ce2 <print_lock>
  for(int i = 0; i < NLOCK; i++) {
    80000db0:	04a1                	addi	s1,s1,8
    80000db2:	05748763          	beq	s1,s7,80000e00 <sys_ntas+0xf4>
    if(locks[i] == 0)
    80000db6:	8926                	mv	s2,s1
    80000db8:	609c                	ld	a5,0(s1)
    80000dba:	c3b9                	beqz	a5,80000e00 <sys_ntas+0xf4>
    if(strncmp(locks[i]->name, "bcache", strlen("bcache")) == 0 ||
    80000dbc:	0087ba83          	ld	s5,8(a5)
    80000dc0:	8552                	mv	a0,s4
    80000dc2:	00000097          	auipc	ra,0x0
    80000dc6:	25a080e7          	jalr	602(ra) # 8000101c <strlen>
    80000dca:	0005061b          	sext.w	a2,a0
    80000dce:	85d2                	mv	a1,s4
    80000dd0:	8556                	mv	a0,s5
    80000dd2:	00000097          	auipc	ra,0x0
    80000dd6:	19e080e7          	jalr	414(ra) # 80000f70 <strncmp>
    80000dda:	d171                	beqz	a0,80000d9e <sys_ntas+0x92>
       strncmp(locks[i]->name, "kmem", strlen("kmem")) == 0) {
    80000ddc:	609c                	ld	a5,0(s1)
    80000dde:	0087ba83          	ld	s5,8(a5)
    80000de2:	8562                	mv	a0,s8
    80000de4:	00000097          	auipc	ra,0x0
    80000de8:	238080e7          	jalr	568(ra) # 8000101c <strlen>
    80000dec:	0005061b          	sext.w	a2,a0
    80000df0:	85e2                	mv	a1,s8
    80000df2:	8556                	mv	a0,s5
    80000df4:	00000097          	auipc	ra,0x0
    80000df8:	17c080e7          	jalr	380(ra) # 80000f70 <strncmp>
    if(strncmp(locks[i]->name, "bcache", strlen("bcache")) == 0 ||
    80000dfc:	f955                	bnez	a0,80000db0 <sys_ntas+0xa4>
    80000dfe:	b745                	j	80000d9e <sys_ntas+0x92>
    }
  }

  printf("=== top 5 contended locks:\n");
    80000e00:	00007517          	auipc	a0,0x7
    80000e04:	4c050513          	addi	a0,a0,1216 # 800082c0 <userret+0x230>
    80000e08:	fffff097          	auipc	ra,0xfffff
    80000e0c:	79a080e7          	jalr	1946(ra) # 800005a2 <printf>
    80000e10:	4a15                	li	s4,5
  int last = 100000000;
    80000e12:	05f5e537          	lui	a0,0x5f5e
    80000e16:	10050513          	addi	a0,a0,256 # 5f5e100 <_entry-0x7a0a1f00>
  // stupid way to compute top 5 contended locks
  for(int t= 0; t < 5; t++) {
    int top = 0;
    for(int i = 0; i < NLOCK; i++) {
    80000e1a:	4a81                	li	s5,0
      if(locks[i] == 0)
        break;
      if(locks[i]->nts > locks[top]->nts && locks[i]->nts < last) {
    80000e1c:	00012497          	auipc	s1,0x12
    80000e20:	bfc48493          	addi	s1,s1,-1028 # 80012a18 <locks>
    for(int i = 0; i < NLOCK; i++) {
    80000e24:	3e800913          	li	s2,1000
    80000e28:	a091                	j	80000e6c <sys_ntas+0x160>
    80000e2a:	2705                	addiw	a4,a4,1
    80000e2c:	06a1                	addi	a3,a3,8
    80000e2e:	03270063          	beq	a4,s2,80000e4e <sys_ntas+0x142>
      if(locks[i] == 0)
    80000e32:	629c                	ld	a5,0(a3)
    80000e34:	cf89                	beqz	a5,80000e4e <sys_ntas+0x142>
      if(locks[i]->nts > locks[top]->nts && locks[i]->nts < last) {
    80000e36:	4fd0                	lw	a2,28(a5)
    80000e38:	00359793          	slli	a5,a1,0x3
    80000e3c:	97a6                	add	a5,a5,s1
    80000e3e:	639c                	ld	a5,0(a5)
    80000e40:	4fdc                	lw	a5,28(a5)
    80000e42:	fec7f4e3          	bgeu	a5,a2,80000e2a <sys_ntas+0x11e>
    80000e46:	fea672e3          	bgeu	a2,a0,80000e2a <sys_ntas+0x11e>
    80000e4a:	85ba                	mv	a1,a4
    80000e4c:	bff9                	j	80000e2a <sys_ntas+0x11e>
        top = i;
      }
    }
    print_lock(locks[top]);
    80000e4e:	058e                	slli	a1,a1,0x3
    80000e50:	00b48bb3          	add	s7,s1,a1
    80000e54:	000bb503          	ld	a0,0(s7)
    80000e58:	00000097          	auipc	ra,0x0
    80000e5c:	e8a080e7          	jalr	-374(ra) # 80000ce2 <print_lock>
    last = locks[top]->nts;
    80000e60:	000bb783          	ld	a5,0(s7)
    80000e64:	4fc8                	lw	a0,28(a5)
  for(int t= 0; t < 5; t++) {
    80000e66:	3a7d                	addiw	s4,s4,-1
    80000e68:	000a0763          	beqz	s4,80000e76 <sys_ntas+0x16a>
  int tot = 0;
    80000e6c:	86da                	mv	a3,s6
    for(int i = 0; i < NLOCK; i++) {
    80000e6e:	8756                	mv	a4,s5
    int top = 0;
    80000e70:	85d6                	mv	a1,s5
      if(locks[i]->nts > locks[top]->nts && locks[i]->nts < last) {
    80000e72:	2501                	sext.w	a0,a0
    80000e74:	bf7d                	j	80000e32 <sys_ntas+0x126>
  }
  return tot;
    80000e76:	854e                	mv	a0,s3
}
    80000e78:	60e6                	ld	ra,88(sp)
    80000e7a:	6446                	ld	s0,80(sp)
    80000e7c:	64a6                	ld	s1,72(sp)
    80000e7e:	6906                	ld	s2,64(sp)
    80000e80:	79e2                	ld	s3,56(sp)
    80000e82:	7a42                	ld	s4,48(sp)
    80000e84:	7aa2                	ld	s5,40(sp)
    80000e86:	7b02                	ld	s6,32(sp)
    80000e88:	6be2                	ld	s7,24(sp)
    80000e8a:	6c42                	ld	s8,16(sp)
    80000e8c:	6125                	addi	sp,sp,96
    80000e8e:	8082                	ret
    return -1;
    80000e90:	557d                	li	a0,-1
    80000e92:	b7dd                	j	80000e78 <sys_ntas+0x16c>
    return 0;
    80000e94:	4501                	li	a0,0
    80000e96:	b7cd                	j	80000e78 <sys_ntas+0x16c>

0000000080000e98 <memset>:
#include "types.h"

void*
memset(void *dst, int c, uint n)
{
    80000e98:	1141                	addi	sp,sp,-16
    80000e9a:	e422                	sd	s0,8(sp)
    80000e9c:	0800                	addi	s0,sp,16
  char *cdst = (char *) dst;
  int i;
  for(i = 0; i < n; i++){
    80000e9e:	ca19                	beqz	a2,80000eb4 <memset+0x1c>
    80000ea0:	87aa                	mv	a5,a0
    80000ea2:	1602                	slli	a2,a2,0x20
    80000ea4:	9201                	srli	a2,a2,0x20
    80000ea6:	00a60733          	add	a4,a2,a0
    cdst[i] = c;
    80000eaa:	00b78023          	sb	a1,0(a5)
  for(i = 0; i < n; i++){
    80000eae:	0785                	addi	a5,a5,1
    80000eb0:	fee79de3          	bne	a5,a4,80000eaa <memset+0x12>
  }
  return dst;
}
    80000eb4:	6422                	ld	s0,8(sp)
    80000eb6:	0141                	addi	sp,sp,16
    80000eb8:	8082                	ret

0000000080000eba <memcmp>:

int
memcmp(const void *v1, const void *v2, uint n)
{
    80000eba:	1141                	addi	sp,sp,-16
    80000ebc:	e422                	sd	s0,8(sp)
    80000ebe:	0800                	addi	s0,sp,16
  const uchar *s1, *s2;

  s1 = v1;
  s2 = v2;
  while(n-- > 0){
    80000ec0:	ca05                	beqz	a2,80000ef0 <memcmp+0x36>
    80000ec2:	fff6069b          	addiw	a3,a2,-1
    80000ec6:	1682                	slli	a3,a3,0x20
    80000ec8:	9281                	srli	a3,a3,0x20
    80000eca:	0685                	addi	a3,a3,1
    80000ecc:	96aa                	add	a3,a3,a0
    if(*s1 != *s2)
    80000ece:	00054783          	lbu	a5,0(a0)
    80000ed2:	0005c703          	lbu	a4,0(a1)
    80000ed6:	00e79863          	bne	a5,a4,80000ee6 <memcmp+0x2c>
      return *s1 - *s2;
    s1++, s2++;
    80000eda:	0505                	addi	a0,a0,1
    80000edc:	0585                	addi	a1,a1,1
  while(n-- > 0){
    80000ede:	fed518e3          	bne	a0,a3,80000ece <memcmp+0x14>
  }

  return 0;
    80000ee2:	4501                	li	a0,0
    80000ee4:	a019                	j	80000eea <memcmp+0x30>
      return *s1 - *s2;
    80000ee6:	40e7853b          	subw	a0,a5,a4
}
    80000eea:	6422                	ld	s0,8(sp)
    80000eec:	0141                	addi	sp,sp,16
    80000eee:	8082                	ret
  return 0;
    80000ef0:	4501                	li	a0,0
    80000ef2:	bfe5                	j	80000eea <memcmp+0x30>

0000000080000ef4 <memmove>:

void*
memmove(void *dst, const void *src, uint n)
{
    80000ef4:	1141                	addi	sp,sp,-16
    80000ef6:	e422                	sd	s0,8(sp)
    80000ef8:	0800                	addi	s0,sp,16
  const char *s;
  char *d;

  s = src;
  d = dst;
  if(s < d && s + n > d){
    80000efa:	02a5e563          	bltu	a1,a0,80000f24 <memmove+0x30>
    s += n;
    d += n;
    while(n-- > 0)
      *--d = *--s;
  } else
    while(n-- > 0)
    80000efe:	fff6069b          	addiw	a3,a2,-1
    80000f02:	ce11                	beqz	a2,80000f1e <memmove+0x2a>
    80000f04:	1682                	slli	a3,a3,0x20
    80000f06:	9281                	srli	a3,a3,0x20
    80000f08:	0685                	addi	a3,a3,1
    80000f0a:	96ae                	add	a3,a3,a1
    80000f0c:	87aa                	mv	a5,a0
      *d++ = *s++;
    80000f0e:	0585                	addi	a1,a1,1
    80000f10:	0785                	addi	a5,a5,1
    80000f12:	fff5c703          	lbu	a4,-1(a1)
    80000f16:	fee78fa3          	sb	a4,-1(a5)
    while(n-- > 0)
    80000f1a:	fed59ae3          	bne	a1,a3,80000f0e <memmove+0x1a>

  return dst;
}
    80000f1e:	6422                	ld	s0,8(sp)
    80000f20:	0141                	addi	sp,sp,16
    80000f22:	8082                	ret
  if(s < d && s + n > d){
    80000f24:	02061713          	slli	a4,a2,0x20
    80000f28:	9301                	srli	a4,a4,0x20
    80000f2a:	00e587b3          	add	a5,a1,a4
    80000f2e:	fcf578e3          	bgeu	a0,a5,80000efe <memmove+0xa>
    d += n;
    80000f32:	972a                	add	a4,a4,a0
    while(n-- > 0)
    80000f34:	fff6069b          	addiw	a3,a2,-1
    80000f38:	d27d                	beqz	a2,80000f1e <memmove+0x2a>
    80000f3a:	02069613          	slli	a2,a3,0x20
    80000f3e:	9201                	srli	a2,a2,0x20
    80000f40:	fff64613          	not	a2,a2
    80000f44:	963e                	add	a2,a2,a5
      *--d = *--s;
    80000f46:	17fd                	addi	a5,a5,-1
    80000f48:	177d                	addi	a4,a4,-1
    80000f4a:	0007c683          	lbu	a3,0(a5)
    80000f4e:	00d70023          	sb	a3,0(a4)
    while(n-- > 0)
    80000f52:	fef61ae3          	bne	a2,a5,80000f46 <memmove+0x52>
    80000f56:	b7e1                	j	80000f1e <memmove+0x2a>

0000000080000f58 <memcpy>:

// memcpy exists to placate GCC.  Use memmove.
void*
memcpy(void *dst, const void *src, uint n)
{
    80000f58:	1141                	addi	sp,sp,-16
    80000f5a:	e406                	sd	ra,8(sp)
    80000f5c:	e022                	sd	s0,0(sp)
    80000f5e:	0800                	addi	s0,sp,16
  return memmove(dst, src, n);
    80000f60:	00000097          	auipc	ra,0x0
    80000f64:	f94080e7          	jalr	-108(ra) # 80000ef4 <memmove>
}
    80000f68:	60a2                	ld	ra,8(sp)
    80000f6a:	6402                	ld	s0,0(sp)
    80000f6c:	0141                	addi	sp,sp,16
    80000f6e:	8082                	ret

0000000080000f70 <strncmp>:

int
strncmp(const char *p, const char *q, uint n)
{
    80000f70:	1141                	addi	sp,sp,-16
    80000f72:	e422                	sd	s0,8(sp)
    80000f74:	0800                	addi	s0,sp,16
  while(n > 0 && *p && *p == *q)
    80000f76:	ce11                	beqz	a2,80000f92 <strncmp+0x22>
    80000f78:	00054783          	lbu	a5,0(a0)
    80000f7c:	cf89                	beqz	a5,80000f96 <strncmp+0x26>
    80000f7e:	0005c703          	lbu	a4,0(a1)
    80000f82:	00f71a63          	bne	a4,a5,80000f96 <strncmp+0x26>
    n--, p++, q++;
    80000f86:	367d                	addiw	a2,a2,-1
    80000f88:	0505                	addi	a0,a0,1
    80000f8a:	0585                	addi	a1,a1,1
  while(n > 0 && *p && *p == *q)
    80000f8c:	f675                	bnez	a2,80000f78 <strncmp+0x8>
  if(n == 0)
    return 0;
    80000f8e:	4501                	li	a0,0
    80000f90:	a809                	j	80000fa2 <strncmp+0x32>
    80000f92:	4501                	li	a0,0
    80000f94:	a039                	j	80000fa2 <strncmp+0x32>
  if(n == 0)
    80000f96:	ca09                	beqz	a2,80000fa8 <strncmp+0x38>
  return (uchar)*p - (uchar)*q;
    80000f98:	00054503          	lbu	a0,0(a0)
    80000f9c:	0005c783          	lbu	a5,0(a1)
    80000fa0:	9d1d                	subw	a0,a0,a5
}
    80000fa2:	6422                	ld	s0,8(sp)
    80000fa4:	0141                	addi	sp,sp,16
    80000fa6:	8082                	ret
    return 0;
    80000fa8:	4501                	li	a0,0
    80000faa:	bfe5                	j	80000fa2 <strncmp+0x32>

0000000080000fac <strncpy>:

char*
strncpy(char *s, const char *t, int n)
{
    80000fac:	1141                	addi	sp,sp,-16
    80000fae:	e422                	sd	s0,8(sp)
    80000fb0:	0800                	addi	s0,sp,16
  char *os;

  os = s;
  while(n-- > 0 && (*s++ = *t++) != 0)
    80000fb2:	872a                	mv	a4,a0
    80000fb4:	8832                	mv	a6,a2
    80000fb6:	367d                	addiw	a2,a2,-1
    80000fb8:	01005963          	blez	a6,80000fca <strncpy+0x1e>
    80000fbc:	0705                	addi	a4,a4,1
    80000fbe:	0005c783          	lbu	a5,0(a1)
    80000fc2:	fef70fa3          	sb	a5,-1(a4)
    80000fc6:	0585                	addi	a1,a1,1
    80000fc8:	f7f5                	bnez	a5,80000fb4 <strncpy+0x8>
    ;
  while(n-- > 0)
    80000fca:	86ba                	mv	a3,a4
    80000fcc:	00c05c63          	blez	a2,80000fe4 <strncpy+0x38>
    *s++ = 0;
    80000fd0:	0685                	addi	a3,a3,1
    80000fd2:	fe068fa3          	sb	zero,-1(a3)
  while(n-- > 0)
    80000fd6:	fff6c793          	not	a5,a3
    80000fda:	9fb9                	addw	a5,a5,a4
    80000fdc:	010787bb          	addw	a5,a5,a6
    80000fe0:	fef048e3          	bgtz	a5,80000fd0 <strncpy+0x24>
  return os;
}
    80000fe4:	6422                	ld	s0,8(sp)
    80000fe6:	0141                	addi	sp,sp,16
    80000fe8:	8082                	ret

0000000080000fea <safestrcpy>:

// Like strncpy but guaranteed to NUL-terminate.
char*
safestrcpy(char *s, const char *t, int n)
{
    80000fea:	1141                	addi	sp,sp,-16
    80000fec:	e422                	sd	s0,8(sp)
    80000fee:	0800                	addi	s0,sp,16
  char *os;

  os = s;
  if(n <= 0)
    80000ff0:	02c05363          	blez	a2,80001016 <safestrcpy+0x2c>
    80000ff4:	fff6069b          	addiw	a3,a2,-1
    80000ff8:	1682                	slli	a3,a3,0x20
    80000ffa:	9281                	srli	a3,a3,0x20
    80000ffc:	96ae                	add	a3,a3,a1
    80000ffe:	87aa                	mv	a5,a0
    return os;
  while(--n > 0 && (*s++ = *t++) != 0)
    80001000:	00d58963          	beq	a1,a3,80001012 <safestrcpy+0x28>
    80001004:	0585                	addi	a1,a1,1
    80001006:	0785                	addi	a5,a5,1
    80001008:	fff5c703          	lbu	a4,-1(a1)
    8000100c:	fee78fa3          	sb	a4,-1(a5)
    80001010:	fb65                	bnez	a4,80001000 <safestrcpy+0x16>
    ;
  *s = 0;
    80001012:	00078023          	sb	zero,0(a5)
  return os;
}
    80001016:	6422                	ld	s0,8(sp)
    80001018:	0141                	addi	sp,sp,16
    8000101a:	8082                	ret

000000008000101c <strlen>:

int
strlen(const char *s)
{
    8000101c:	1141                	addi	sp,sp,-16
    8000101e:	e422                	sd	s0,8(sp)
    80001020:	0800                	addi	s0,sp,16
  int n;

  for(n = 0; s[n]; n++)
    80001022:	00054783          	lbu	a5,0(a0)
    80001026:	cf91                	beqz	a5,80001042 <strlen+0x26>
    80001028:	0505                	addi	a0,a0,1
    8000102a:	87aa                	mv	a5,a0
    8000102c:	4685                	li	a3,1
    8000102e:	9e89                	subw	a3,a3,a0
    80001030:	00f6853b          	addw	a0,a3,a5
    80001034:	0785                	addi	a5,a5,1
    80001036:	fff7c703          	lbu	a4,-1(a5)
    8000103a:	fb7d                	bnez	a4,80001030 <strlen+0x14>
    ;
  return n;
}
    8000103c:	6422                	ld	s0,8(sp)
    8000103e:	0141                	addi	sp,sp,16
    80001040:	8082                	ret
  for(n = 0; s[n]; n++)
    80001042:	4501                	li	a0,0
    80001044:	bfe5                	j	8000103c <strlen+0x20>

0000000080001046 <main>:
volatile static int started = 0;

// start() jumps here in supervisor mode on all CPUs.
void
main()
{
    80001046:	1141                	addi	sp,sp,-16
    80001048:	e406                	sd	ra,8(sp)
    8000104a:	e022                	sd	s0,0(sp)
    8000104c:	0800                	addi	s0,sp,16
  if(cpuid() == 0){
    8000104e:	00001097          	auipc	ra,0x1
    80001052:	b08080e7          	jalr	-1272(ra) # 80001b56 <cpuid>
    virtio_disk_init(minor(ROOTDEV)); // emulated hard disk
    userinit();      // first user process
    __sync_synchronize();
    started = 1;
  } else {
    while(started == 0)
    80001056:	0002f717          	auipc	a4,0x2f
    8000105a:	fd270713          	addi	a4,a4,-46 # 80030028 <started>
  if(cpuid() == 0){
    8000105e:	c139                	beqz	a0,800010a4 <main+0x5e>
    while(started == 0)
    80001060:	431c                	lw	a5,0(a4)
    80001062:	2781                	sext.w	a5,a5
    80001064:	dff5                	beqz	a5,80001060 <main+0x1a>
      ;
    __sync_synchronize();
    80001066:	0ff0000f          	fence
    printf("hart %d starting\n", cpuid());
    8000106a:	00001097          	auipc	ra,0x1
    8000106e:	aec080e7          	jalr	-1300(ra) # 80001b56 <cpuid>
    80001072:	85aa                	mv	a1,a0
    80001074:	00007517          	auipc	a0,0x7
    80001078:	28450513          	addi	a0,a0,644 # 800082f8 <userret+0x268>
    8000107c:	fffff097          	auipc	ra,0xfffff
    80001080:	526080e7          	jalr	1318(ra) # 800005a2 <printf>
    kvminithart();    // turn on paging
    80001084:	00000097          	auipc	ra,0x0
    80001088:	1ea080e7          	jalr	490(ra) # 8000126e <kvminithart>
    trapinithart();   // install kernel trap vector
    8000108c:	00001097          	auipc	ra,0x1
    80001090:	714080e7          	jalr	1812(ra) # 800027a0 <trapinithart>
    plicinithart();   // ask PLIC for device interrupts
    80001094:	00005097          	auipc	ra,0x5
    80001098:	edc080e7          	jalr	-292(ra) # 80005f70 <plicinithart>
  }

  scheduler();        
    8000109c:	00001097          	auipc	ra,0x1
    800010a0:	fc4080e7          	jalr	-60(ra) # 80002060 <scheduler>
    consoleinit();
    800010a4:	fffff097          	auipc	ra,0xfffff
    800010a8:	3b6080e7          	jalr	950(ra) # 8000045a <consoleinit>
    printfinit();
    800010ac:	fffff097          	auipc	ra,0xfffff
    800010b0:	6d6080e7          	jalr	1750(ra) # 80000782 <printfinit>
    printf("\n");
    800010b4:	00007517          	auipc	a0,0x7
    800010b8:	1dc50513          	addi	a0,a0,476 # 80008290 <userret+0x200>
    800010bc:	fffff097          	auipc	ra,0xfffff
    800010c0:	4e6080e7          	jalr	1254(ra) # 800005a2 <printf>
    printf("xv6 kernel is booting\n");
    800010c4:	00007517          	auipc	a0,0x7
    800010c8:	21c50513          	addi	a0,a0,540 # 800082e0 <userret+0x250>
    800010cc:	fffff097          	auipc	ra,0xfffff
    800010d0:	4d6080e7          	jalr	1238(ra) # 800005a2 <printf>
    printf("\n");
    800010d4:	00007517          	auipc	a0,0x7
    800010d8:	1bc50513          	addi	a0,a0,444 # 80008290 <userret+0x200>
    800010dc:	fffff097          	auipc	ra,0xfffff
    800010e0:	4c6080e7          	jalr	1222(ra) # 800005a2 <printf>
    kinit();         // physical page allocator
    800010e4:	00000097          	auipc	ra,0x0
    800010e8:	874080e7          	jalr	-1932(ra) # 80000958 <kinit>
    kvminit();       // create kernel page table
    800010ec:	00000097          	auipc	ra,0x0
    800010f0:	30c080e7          	jalr	780(ra) # 800013f8 <kvminit>
    kvminithart();   // turn on paging
    800010f4:	00000097          	auipc	ra,0x0
    800010f8:	17a080e7          	jalr	378(ra) # 8000126e <kvminithart>
    procinit();      // process table
    800010fc:	00001097          	auipc	ra,0x1
    80001100:	98a080e7          	jalr	-1654(ra) # 80001a86 <procinit>
    trapinit();      // trap vectors
    80001104:	00001097          	auipc	ra,0x1
    80001108:	674080e7          	jalr	1652(ra) # 80002778 <trapinit>
    trapinithart();  // install kernel trap vector
    8000110c:	00001097          	auipc	ra,0x1
    80001110:	694080e7          	jalr	1684(ra) # 800027a0 <trapinithart>
    plicinit();      // set up interrupt controller
    80001114:	00005097          	auipc	ra,0x5
    80001118:	e46080e7          	jalr	-442(ra) # 80005f5a <plicinit>
    plicinithart();  // ask PLIC for device interrupts
    8000111c:	00005097          	auipc	ra,0x5
    80001120:	e54080e7          	jalr	-428(ra) # 80005f70 <plicinithart>
    binit();         // buffer cache
    80001124:	00002097          	auipc	ra,0x2
    80001128:	db8080e7          	jalr	-584(ra) # 80002edc <binit>
    iinit();         // inode cache
    8000112c:	00002097          	auipc	ra,0x2
    80001130:	56a080e7          	jalr	1386(ra) # 80003696 <iinit>
    fileinit();      // file table
    80001134:	00003097          	auipc	ra,0x3
    80001138:	5f6080e7          	jalr	1526(ra) # 8000472a <fileinit>
    virtio_disk_init(minor(ROOTDEV)); // emulated hard disk
    8000113c:	4501                	li	a0,0
    8000113e:	00005097          	auipc	ra,0x5
    80001142:	f54080e7          	jalr	-172(ra) # 80006092 <virtio_disk_init>
    userinit();      // first user process
    80001146:	00001097          	auipc	ra,0x1
    8000114a:	cb0080e7          	jalr	-848(ra) # 80001df6 <userinit>
    __sync_synchronize();
    8000114e:	0ff0000f          	fence
    started = 1;
    80001152:	4785                	li	a5,1
    80001154:	0002f717          	auipc	a4,0x2f
    80001158:	ecf72a23          	sw	a5,-300(a4) # 80030028 <started>
    8000115c:	b781                	j	8000109c <main+0x56>

000000008000115e <walk>:
//   21..39 -- 9 bits of level-1 index.
//   12..20 -- 9 bits of level-0 index.
//    0..12 -- 12 bits of byte offset within the page.
static pte_t *
walk(pagetable_t pagetable, uint64 va, int alloc)
{
    8000115e:	7139                	addi	sp,sp,-64
    80001160:	fc06                	sd	ra,56(sp)
    80001162:	f822                	sd	s0,48(sp)
    80001164:	f426                	sd	s1,40(sp)
    80001166:	f04a                	sd	s2,32(sp)
    80001168:	ec4e                	sd	s3,24(sp)
    8000116a:	e852                	sd	s4,16(sp)
    8000116c:	e456                	sd	s5,8(sp)
    8000116e:	e05a                	sd	s6,0(sp)
    80001170:	0080                	addi	s0,sp,64
    80001172:	84aa                	mv	s1,a0
    80001174:	89ae                	mv	s3,a1
    80001176:	8ab2                	mv	s5,a2
  if(va >= MAXVA)
    80001178:	57fd                	li	a5,-1
    8000117a:	83e9                	srli	a5,a5,0x1a
    8000117c:	4a79                	li	s4,30
    panic("walk");

  for(int level = 2; level > 0; level--) {
    8000117e:	4b31                	li	s6,12
  if(va >= MAXVA)
    80001180:	04b7f263          	bgeu	a5,a1,800011c4 <walk+0x66>
    panic("walk");
    80001184:	00007517          	auipc	a0,0x7
    80001188:	18c50513          	addi	a0,a0,396 # 80008310 <userret+0x280>
    8000118c:	fffff097          	auipc	ra,0xfffff
    80001190:	3bc080e7          	jalr	956(ra) # 80000548 <panic>
    pte_t *pte = &pagetable[PX(level, va)];
    if(*pte & PTE_V) {
      pagetable = (pagetable_t)PTE2PA(*pte);
    } else {
      if(!alloc || (pagetable = (pde_t*)kalloc()) == 0)
    80001194:	060a8663          	beqz	s5,80001200 <walk+0xa2>
    80001198:	00000097          	auipc	ra,0x0
    8000119c:	8ac080e7          	jalr	-1876(ra) # 80000a44 <kalloc>
    800011a0:	84aa                	mv	s1,a0
    800011a2:	c529                	beqz	a0,800011ec <walk+0x8e>
        return 0;
      memset(pagetable, 0, PGSIZE);
    800011a4:	6605                	lui	a2,0x1
    800011a6:	4581                	li	a1,0
    800011a8:	00000097          	auipc	ra,0x0
    800011ac:	cf0080e7          	jalr	-784(ra) # 80000e98 <memset>
      *pte = PA2PTE(pagetable) | PTE_V;
    800011b0:	00c4d793          	srli	a5,s1,0xc
    800011b4:	07aa                	slli	a5,a5,0xa
    800011b6:	0017e793          	ori	a5,a5,1
    800011ba:	00f93023          	sd	a5,0(s2)
  for(int level = 2; level > 0; level--) {
    800011be:	3a5d                	addiw	s4,s4,-9
    800011c0:	036a0063          	beq	s4,s6,800011e0 <walk+0x82>
    pte_t *pte = &pagetable[PX(level, va)];
    800011c4:	0149d933          	srl	s2,s3,s4
    800011c8:	1ff97913          	andi	s2,s2,511
    800011cc:	090e                	slli	s2,s2,0x3
    800011ce:	9926                	add	s2,s2,s1
    if(*pte & PTE_V) {
    800011d0:	00093483          	ld	s1,0(s2)
    800011d4:	0014f793          	andi	a5,s1,1
    800011d8:	dfd5                	beqz	a5,80001194 <walk+0x36>
      pagetable = (pagetable_t)PTE2PA(*pte);
    800011da:	80a9                	srli	s1,s1,0xa
    800011dc:	04b2                	slli	s1,s1,0xc
    800011de:	b7c5                	j	800011be <walk+0x60>
    }
  }
  return &pagetable[PX(0, va)];
    800011e0:	00c9d513          	srli	a0,s3,0xc
    800011e4:	1ff57513          	andi	a0,a0,511
    800011e8:	050e                	slli	a0,a0,0x3
    800011ea:	9526                	add	a0,a0,s1
}
    800011ec:	70e2                	ld	ra,56(sp)
    800011ee:	7442                	ld	s0,48(sp)
    800011f0:	74a2                	ld	s1,40(sp)
    800011f2:	7902                	ld	s2,32(sp)
    800011f4:	69e2                	ld	s3,24(sp)
    800011f6:	6a42                	ld	s4,16(sp)
    800011f8:	6aa2                	ld	s5,8(sp)
    800011fa:	6b02                	ld	s6,0(sp)
    800011fc:	6121                	addi	sp,sp,64
    800011fe:	8082                	ret
        return 0;
    80001200:	4501                	li	a0,0
    80001202:	b7ed                	j	800011ec <walk+0x8e>

0000000080001204 <freewalk>:

// Recursively free page-table pages.
// All leaf mappings must already have been removed.
static void
freewalk(pagetable_t pagetable)
{
    80001204:	7179                	addi	sp,sp,-48
    80001206:	f406                	sd	ra,40(sp)
    80001208:	f022                	sd	s0,32(sp)
    8000120a:	ec26                	sd	s1,24(sp)
    8000120c:	e84a                	sd	s2,16(sp)
    8000120e:	e44e                	sd	s3,8(sp)
    80001210:	e052                	sd	s4,0(sp)
    80001212:	1800                	addi	s0,sp,48
    80001214:	8a2a                	mv	s4,a0
  // there are 2^9 = 512 PTEs in a page table.
  for(int i = 0; i < 512; i++){
    80001216:	84aa                	mv	s1,a0
    80001218:	6905                	lui	s2,0x1
    8000121a:	992a                	add	s2,s2,a0
    pte_t pte = pagetable[i];
    if((pte & PTE_V) && (pte & (PTE_R|PTE_W|PTE_X)) == 0){
    8000121c:	4985                	li	s3,1
    8000121e:	a821                	j	80001236 <freewalk+0x32>
      // this PTE points to a lower-level page table.
      uint64 child = PTE2PA(pte);
    80001220:	8129                	srli	a0,a0,0xa
      freewalk((pagetable_t)child);
    80001222:	0532                	slli	a0,a0,0xc
    80001224:	00000097          	auipc	ra,0x0
    80001228:	fe0080e7          	jalr	-32(ra) # 80001204 <freewalk>
      pagetable[i] = 0;
    8000122c:	0004b023          	sd	zero,0(s1)
  for(int i = 0; i < 512; i++){
    80001230:	04a1                	addi	s1,s1,8
    80001232:	03248163          	beq	s1,s2,80001254 <freewalk+0x50>
    pte_t pte = pagetable[i];
    80001236:	6088                	ld	a0,0(s1)
    if((pte & PTE_V) && (pte & (PTE_R|PTE_W|PTE_X)) == 0){
    80001238:	00f57793          	andi	a5,a0,15
    8000123c:	ff3782e3          	beq	a5,s3,80001220 <freewalk+0x1c>
    } else if(pte & PTE_V){
    80001240:	8905                	andi	a0,a0,1
    80001242:	d57d                	beqz	a0,80001230 <freewalk+0x2c>
      panic("freewalk: leaf");
    80001244:	00007517          	auipc	a0,0x7
    80001248:	0d450513          	addi	a0,a0,212 # 80008318 <userret+0x288>
    8000124c:	fffff097          	auipc	ra,0xfffff
    80001250:	2fc080e7          	jalr	764(ra) # 80000548 <panic>
    }
  }
  kfree((void*)pagetable);
    80001254:	8552                	mv	a0,s4
    80001256:	fffff097          	auipc	ra,0xfffff
    8000125a:	60e080e7          	jalr	1550(ra) # 80000864 <kfree>
}
    8000125e:	70a2                	ld	ra,40(sp)
    80001260:	7402                	ld	s0,32(sp)
    80001262:	64e2                	ld	s1,24(sp)
    80001264:	6942                	ld	s2,16(sp)
    80001266:	69a2                	ld	s3,8(sp)
    80001268:	6a02                	ld	s4,0(sp)
    8000126a:	6145                	addi	sp,sp,48
    8000126c:	8082                	ret

000000008000126e <kvminithart>:
{
    8000126e:	1141                	addi	sp,sp,-16
    80001270:	e422                	sd	s0,8(sp)
    80001272:	0800                	addi	s0,sp,16
  w_satp(MAKE_SATP(kernel_pagetable));
    80001274:	0002f797          	auipc	a5,0x2f
    80001278:	dbc7b783          	ld	a5,-580(a5) # 80030030 <kernel_pagetable>
    8000127c:	83b1                	srli	a5,a5,0xc
    8000127e:	577d                	li	a4,-1
    80001280:	177e                	slli	a4,a4,0x3f
    80001282:	8fd9                	or	a5,a5,a4
  asm volatile("csrw satp, %0" : : "r" (x));
    80001284:	18079073          	csrw	satp,a5
// flush the TLB.
static inline void
sfence_vma()
{
  // the zero, zero means flush all TLB entries.
  asm volatile("sfence.vma zero, zero");
    80001288:	12000073          	sfence.vma
}
    8000128c:	6422                	ld	s0,8(sp)
    8000128e:	0141                	addi	sp,sp,16
    80001290:	8082                	ret

0000000080001292 <walkaddr>:
  if(va >= MAXVA)
    80001292:	57fd                	li	a5,-1
    80001294:	83e9                	srli	a5,a5,0x1a
    80001296:	00b7f463          	bgeu	a5,a1,8000129e <walkaddr+0xc>
    return 0;
    8000129a:	4501                	li	a0,0
}
    8000129c:	8082                	ret
{
    8000129e:	1141                	addi	sp,sp,-16
    800012a0:	e406                	sd	ra,8(sp)
    800012a2:	e022                	sd	s0,0(sp)
    800012a4:	0800                	addi	s0,sp,16
  pte = walk(pagetable, va, 0);
    800012a6:	4601                	li	a2,0
    800012a8:	00000097          	auipc	ra,0x0
    800012ac:	eb6080e7          	jalr	-330(ra) # 8000115e <walk>
  if(pte == 0)
    800012b0:	c105                	beqz	a0,800012d0 <walkaddr+0x3e>
  if((*pte & PTE_V) == 0)
    800012b2:	611c                	ld	a5,0(a0)
  if((*pte & PTE_U) == 0)
    800012b4:	0117f693          	andi	a3,a5,17
    800012b8:	4745                	li	a4,17
    return 0;
    800012ba:	4501                	li	a0,0
  if((*pte & PTE_U) == 0)
    800012bc:	00e68663          	beq	a3,a4,800012c8 <walkaddr+0x36>
}
    800012c0:	60a2                	ld	ra,8(sp)
    800012c2:	6402                	ld	s0,0(sp)
    800012c4:	0141                	addi	sp,sp,16
    800012c6:	8082                	ret
  pa = PTE2PA(*pte);
    800012c8:	00a7d513          	srli	a0,a5,0xa
    800012cc:	0532                	slli	a0,a0,0xc
  return pa;
    800012ce:	bfcd                	j	800012c0 <walkaddr+0x2e>
    return 0;
    800012d0:	4501                	li	a0,0
    800012d2:	b7fd                	j	800012c0 <walkaddr+0x2e>

00000000800012d4 <kvmpa>:
{
    800012d4:	1101                	addi	sp,sp,-32
    800012d6:	ec06                	sd	ra,24(sp)
    800012d8:	e822                	sd	s0,16(sp)
    800012da:	e426                	sd	s1,8(sp)
    800012dc:	1000                	addi	s0,sp,32
    800012de:	85aa                	mv	a1,a0
  uint64 off = va % PGSIZE;
    800012e0:	1552                	slli	a0,a0,0x34
    800012e2:	03455493          	srli	s1,a0,0x34
  pte = walk(kernel_pagetable, va, 0);
    800012e6:	4601                	li	a2,0
    800012e8:	0002f517          	auipc	a0,0x2f
    800012ec:	d4853503          	ld	a0,-696(a0) # 80030030 <kernel_pagetable>
    800012f0:	00000097          	auipc	ra,0x0
    800012f4:	e6e080e7          	jalr	-402(ra) # 8000115e <walk>
  if(pte == 0)
    800012f8:	cd09                	beqz	a0,80001312 <kvmpa+0x3e>
  if((*pte & PTE_V) == 0)
    800012fa:	6108                	ld	a0,0(a0)
    800012fc:	00157793          	andi	a5,a0,1
    80001300:	c38d                	beqz	a5,80001322 <kvmpa+0x4e>
  pa = PTE2PA(*pte);
    80001302:	8129                	srli	a0,a0,0xa
    80001304:	0532                	slli	a0,a0,0xc
}
    80001306:	9526                	add	a0,a0,s1
    80001308:	60e2                	ld	ra,24(sp)
    8000130a:	6442                	ld	s0,16(sp)
    8000130c:	64a2                	ld	s1,8(sp)
    8000130e:	6105                	addi	sp,sp,32
    80001310:	8082                	ret
    panic("kvmpa");
    80001312:	00007517          	auipc	a0,0x7
    80001316:	01650513          	addi	a0,a0,22 # 80008328 <userret+0x298>
    8000131a:	fffff097          	auipc	ra,0xfffff
    8000131e:	22e080e7          	jalr	558(ra) # 80000548 <panic>
    panic("kvmpa");
    80001322:	00007517          	auipc	a0,0x7
    80001326:	00650513          	addi	a0,a0,6 # 80008328 <userret+0x298>
    8000132a:	fffff097          	auipc	ra,0xfffff
    8000132e:	21e080e7          	jalr	542(ra) # 80000548 <panic>

0000000080001332 <mappages>:
{
    80001332:	715d                	addi	sp,sp,-80
    80001334:	e486                	sd	ra,72(sp)
    80001336:	e0a2                	sd	s0,64(sp)
    80001338:	fc26                	sd	s1,56(sp)
    8000133a:	f84a                	sd	s2,48(sp)
    8000133c:	f44e                	sd	s3,40(sp)
    8000133e:	f052                	sd	s4,32(sp)
    80001340:	ec56                	sd	s5,24(sp)
    80001342:	e85a                	sd	s6,16(sp)
    80001344:	e45e                	sd	s7,8(sp)
    80001346:	0880                	addi	s0,sp,80
    80001348:	8aaa                	mv	s5,a0
    8000134a:	8b3a                	mv	s6,a4
  a = PGROUNDDOWN(va);
    8000134c:	777d                	lui	a4,0xfffff
    8000134e:	00e5f7b3          	and	a5,a1,a4
  last = PGROUNDDOWN(va + size - 1);
    80001352:	167d                	addi	a2,a2,-1
    80001354:	00b609b3          	add	s3,a2,a1
    80001358:	00e9f9b3          	and	s3,s3,a4
  a = PGROUNDDOWN(va);
    8000135c:	893e                	mv	s2,a5
    8000135e:	40f68a33          	sub	s4,a3,a5
    a += PGSIZE;
    80001362:	6b85                	lui	s7,0x1
    80001364:	012a04b3          	add	s1,s4,s2
    if((pte = walk(pagetable, a, 1)) == 0)
    80001368:	4605                	li	a2,1
    8000136a:	85ca                	mv	a1,s2
    8000136c:	8556                	mv	a0,s5
    8000136e:	00000097          	auipc	ra,0x0
    80001372:	df0080e7          	jalr	-528(ra) # 8000115e <walk>
    80001376:	c51d                	beqz	a0,800013a4 <mappages+0x72>
    if(*pte & PTE_V)
    80001378:	611c                	ld	a5,0(a0)
    8000137a:	8b85                	andi	a5,a5,1
    8000137c:	ef81                	bnez	a5,80001394 <mappages+0x62>
    *pte = PA2PTE(pa) | perm | PTE_V;
    8000137e:	80b1                	srli	s1,s1,0xc
    80001380:	04aa                	slli	s1,s1,0xa
    80001382:	0164e4b3          	or	s1,s1,s6
    80001386:	0014e493          	ori	s1,s1,1
    8000138a:	e104                	sd	s1,0(a0)
    if(a == last)
    8000138c:	03390863          	beq	s2,s3,800013bc <mappages+0x8a>
    a += PGSIZE;
    80001390:	995e                	add	s2,s2,s7
    if((pte = walk(pagetable, a, 1)) == 0)
    80001392:	bfc9                	j	80001364 <mappages+0x32>
      panic("remap");
    80001394:	00007517          	auipc	a0,0x7
    80001398:	f9c50513          	addi	a0,a0,-100 # 80008330 <userret+0x2a0>
    8000139c:	fffff097          	auipc	ra,0xfffff
    800013a0:	1ac080e7          	jalr	428(ra) # 80000548 <panic>
      return -1;
    800013a4:	557d                	li	a0,-1
}
    800013a6:	60a6                	ld	ra,72(sp)
    800013a8:	6406                	ld	s0,64(sp)
    800013aa:	74e2                	ld	s1,56(sp)
    800013ac:	7942                	ld	s2,48(sp)
    800013ae:	79a2                	ld	s3,40(sp)
    800013b0:	7a02                	ld	s4,32(sp)
    800013b2:	6ae2                	ld	s5,24(sp)
    800013b4:	6b42                	ld	s6,16(sp)
    800013b6:	6ba2                	ld	s7,8(sp)
    800013b8:	6161                	addi	sp,sp,80
    800013ba:	8082                	ret
  return 0;
    800013bc:	4501                	li	a0,0
    800013be:	b7e5                	j	800013a6 <mappages+0x74>

00000000800013c0 <kvmmap>:
{
    800013c0:	1141                	addi	sp,sp,-16
    800013c2:	e406                	sd	ra,8(sp)
    800013c4:	e022                	sd	s0,0(sp)
    800013c6:	0800                	addi	s0,sp,16
    800013c8:	8736                	mv	a4,a3
  if(mappages(kernel_pagetable, va, sz, pa, perm) != 0)
    800013ca:	86ae                	mv	a3,a1
    800013cc:	85aa                	mv	a1,a0
    800013ce:	0002f517          	auipc	a0,0x2f
    800013d2:	c6253503          	ld	a0,-926(a0) # 80030030 <kernel_pagetable>
    800013d6:	00000097          	auipc	ra,0x0
    800013da:	f5c080e7          	jalr	-164(ra) # 80001332 <mappages>
    800013de:	e509                	bnez	a0,800013e8 <kvmmap+0x28>
}
    800013e0:	60a2                	ld	ra,8(sp)
    800013e2:	6402                	ld	s0,0(sp)
    800013e4:	0141                	addi	sp,sp,16
    800013e6:	8082                	ret
    panic("kvmmap");
    800013e8:	00007517          	auipc	a0,0x7
    800013ec:	f5050513          	addi	a0,a0,-176 # 80008338 <userret+0x2a8>
    800013f0:	fffff097          	auipc	ra,0xfffff
    800013f4:	158080e7          	jalr	344(ra) # 80000548 <panic>

00000000800013f8 <kvminit>:
{
    800013f8:	1101                	addi	sp,sp,-32
    800013fa:	ec06                	sd	ra,24(sp)
    800013fc:	e822                	sd	s0,16(sp)
    800013fe:	e426                	sd	s1,8(sp)
    80001400:	1000                	addi	s0,sp,32
  kernel_pagetable = (pagetable_t) kalloc();
    80001402:	fffff097          	auipc	ra,0xfffff
    80001406:	642080e7          	jalr	1602(ra) # 80000a44 <kalloc>
    8000140a:	0002f797          	auipc	a5,0x2f
    8000140e:	c2a7b323          	sd	a0,-986(a5) # 80030030 <kernel_pagetable>
  memset(kernel_pagetable, 0, PGSIZE);
    80001412:	6605                	lui	a2,0x1
    80001414:	4581                	li	a1,0
    80001416:	00000097          	auipc	ra,0x0
    8000141a:	a82080e7          	jalr	-1406(ra) # 80000e98 <memset>
  kvmmap(UART0, UART0, PGSIZE, PTE_R | PTE_W);
    8000141e:	4699                	li	a3,6
    80001420:	6605                	lui	a2,0x1
    80001422:	100005b7          	lui	a1,0x10000
    80001426:	10000537          	lui	a0,0x10000
    8000142a:	00000097          	auipc	ra,0x0
    8000142e:	f96080e7          	jalr	-106(ra) # 800013c0 <kvmmap>
  kvmmap(VIRTION(0), VIRTION(0), PGSIZE, PTE_R | PTE_W);
    80001432:	4699                	li	a3,6
    80001434:	6605                	lui	a2,0x1
    80001436:	100015b7          	lui	a1,0x10001
    8000143a:	10001537          	lui	a0,0x10001
    8000143e:	00000097          	auipc	ra,0x0
    80001442:	f82080e7          	jalr	-126(ra) # 800013c0 <kvmmap>
  kvmmap(VIRTION(1), VIRTION(1), PGSIZE, PTE_R | PTE_W);
    80001446:	4699                	li	a3,6
    80001448:	6605                	lui	a2,0x1
    8000144a:	100025b7          	lui	a1,0x10002
    8000144e:	10002537          	lui	a0,0x10002
    80001452:	00000097          	auipc	ra,0x0
    80001456:	f6e080e7          	jalr	-146(ra) # 800013c0 <kvmmap>
  kvmmap(CLINT, CLINT, 0x10000, PTE_R | PTE_W);
    8000145a:	4699                	li	a3,6
    8000145c:	6641                	lui	a2,0x10
    8000145e:	020005b7          	lui	a1,0x2000
    80001462:	02000537          	lui	a0,0x2000
    80001466:	00000097          	auipc	ra,0x0
    8000146a:	f5a080e7          	jalr	-166(ra) # 800013c0 <kvmmap>
  kvmmap(PLIC, PLIC, 0x400000, PTE_R | PTE_W);
    8000146e:	4699                	li	a3,6
    80001470:	00400637          	lui	a2,0x400
    80001474:	0c0005b7          	lui	a1,0xc000
    80001478:	0c000537          	lui	a0,0xc000
    8000147c:	00000097          	auipc	ra,0x0
    80001480:	f44080e7          	jalr	-188(ra) # 800013c0 <kvmmap>
  kvmmap(KERNBASE, KERNBASE, (uint64)etext-KERNBASE, PTE_R | PTE_X);
    80001484:	00008497          	auipc	s1,0x8
    80001488:	b7c48493          	addi	s1,s1,-1156 # 80009000 <initcode>
    8000148c:	46a9                	li	a3,10
    8000148e:	80008617          	auipc	a2,0x80008
    80001492:	b7260613          	addi	a2,a2,-1166 # 9000 <_entry-0x7fff7000>
    80001496:	4585                	li	a1,1
    80001498:	05fe                	slli	a1,a1,0x1f
    8000149a:	852e                	mv	a0,a1
    8000149c:	00000097          	auipc	ra,0x0
    800014a0:	f24080e7          	jalr	-220(ra) # 800013c0 <kvmmap>
  kvmmap((uint64)etext, (uint64)etext, PHYSTOP-(uint64)etext, PTE_R | PTE_W);
    800014a4:	4699                	li	a3,6
    800014a6:	4645                	li	a2,17
    800014a8:	066e                	slli	a2,a2,0x1b
    800014aa:	8e05                	sub	a2,a2,s1
    800014ac:	85a6                	mv	a1,s1
    800014ae:	8526                	mv	a0,s1
    800014b0:	00000097          	auipc	ra,0x0
    800014b4:	f10080e7          	jalr	-240(ra) # 800013c0 <kvmmap>
  kvmmap(TRAMPOLINE, (uint64)trampoline, PGSIZE, PTE_R | PTE_X);
    800014b8:	46a9                	li	a3,10
    800014ba:	6605                	lui	a2,0x1
    800014bc:	00007597          	auipc	a1,0x7
    800014c0:	b4458593          	addi	a1,a1,-1212 # 80008000 <trampoline>
    800014c4:	04000537          	lui	a0,0x4000
    800014c8:	157d                	addi	a0,a0,-1
    800014ca:	0532                	slli	a0,a0,0xc
    800014cc:	00000097          	auipc	ra,0x0
    800014d0:	ef4080e7          	jalr	-268(ra) # 800013c0 <kvmmap>
}
    800014d4:	60e2                	ld	ra,24(sp)
    800014d6:	6442                	ld	s0,16(sp)
    800014d8:	64a2                	ld	s1,8(sp)
    800014da:	6105                	addi	sp,sp,32
    800014dc:	8082                	ret

00000000800014de <uvmunmap>:
{
    800014de:	715d                	addi	sp,sp,-80
    800014e0:	e486                	sd	ra,72(sp)
    800014e2:	e0a2                	sd	s0,64(sp)
    800014e4:	fc26                	sd	s1,56(sp)
    800014e6:	f84a                	sd	s2,48(sp)
    800014e8:	f44e                	sd	s3,40(sp)
    800014ea:	f052                	sd	s4,32(sp)
    800014ec:	ec56                	sd	s5,24(sp)
    800014ee:	e85a                	sd	s6,16(sp)
    800014f0:	e45e                	sd	s7,8(sp)
    800014f2:	0880                	addi	s0,sp,80
    800014f4:	8a2a                	mv	s4,a0
    800014f6:	8ab6                	mv	s5,a3
  a = PGROUNDDOWN(va);
    800014f8:	77fd                	lui	a5,0xfffff
    800014fa:	00f5f933          	and	s2,a1,a5
  last = PGROUNDDOWN(va + size - 1);
    800014fe:	167d                	addi	a2,a2,-1
    80001500:	00b609b3          	add	s3,a2,a1
    80001504:	00f9f9b3          	and	s3,s3,a5
    if(PTE_FLAGS(*pte) == PTE_V)
    80001508:	4b05                	li	s6,1
    a += PGSIZE;
    8000150a:	6b85                	lui	s7,0x1
    8000150c:	a0b9                	j	8000155a <uvmunmap+0x7c>
      panic("uvmunmap: walk");
    8000150e:	00007517          	auipc	a0,0x7
    80001512:	e3250513          	addi	a0,a0,-462 # 80008340 <userret+0x2b0>
    80001516:	fffff097          	auipc	ra,0xfffff
    8000151a:	032080e7          	jalr	50(ra) # 80000548 <panic>
      printf("va=%p pte=%p\n", a, *pte);
    8000151e:	85ca                	mv	a1,s2
    80001520:	00007517          	auipc	a0,0x7
    80001524:	e3050513          	addi	a0,a0,-464 # 80008350 <userret+0x2c0>
    80001528:	fffff097          	auipc	ra,0xfffff
    8000152c:	07a080e7          	jalr	122(ra) # 800005a2 <printf>
      panic("uvmunmap: not mapped");
    80001530:	00007517          	auipc	a0,0x7
    80001534:	e3050513          	addi	a0,a0,-464 # 80008360 <userret+0x2d0>
    80001538:	fffff097          	auipc	ra,0xfffff
    8000153c:	010080e7          	jalr	16(ra) # 80000548 <panic>
      panic("uvmunmap: not a leaf");
    80001540:	00007517          	auipc	a0,0x7
    80001544:	e3850513          	addi	a0,a0,-456 # 80008378 <userret+0x2e8>
    80001548:	fffff097          	auipc	ra,0xfffff
    8000154c:	000080e7          	jalr	ra # 80000548 <panic>
    *pte = 0;
    80001550:	0004b023          	sd	zero,0(s1)
    if(a == last)
    80001554:	03390e63          	beq	s2,s3,80001590 <uvmunmap+0xb2>
    a += PGSIZE;
    80001558:	995e                	add	s2,s2,s7
    if((pte = walk(pagetable, a, 0)) == 0)
    8000155a:	4601                	li	a2,0
    8000155c:	85ca                	mv	a1,s2
    8000155e:	8552                	mv	a0,s4
    80001560:	00000097          	auipc	ra,0x0
    80001564:	bfe080e7          	jalr	-1026(ra) # 8000115e <walk>
    80001568:	84aa                	mv	s1,a0
    8000156a:	d155                	beqz	a0,8000150e <uvmunmap+0x30>
    if((*pte & PTE_V) == 0){
    8000156c:	6110                	ld	a2,0(a0)
    8000156e:	00167793          	andi	a5,a2,1
    80001572:	d7d5                	beqz	a5,8000151e <uvmunmap+0x40>
    if(PTE_FLAGS(*pte) == PTE_V)
    80001574:	3ff67793          	andi	a5,a2,1023
    80001578:	fd6784e3          	beq	a5,s6,80001540 <uvmunmap+0x62>
    if(do_free){
    8000157c:	fc0a8ae3          	beqz	s5,80001550 <uvmunmap+0x72>
      pa = PTE2PA(*pte);
    80001580:	8229                	srli	a2,a2,0xa
      kfree((void*)pa);
    80001582:	00c61513          	slli	a0,a2,0xc
    80001586:	fffff097          	auipc	ra,0xfffff
    8000158a:	2de080e7          	jalr	734(ra) # 80000864 <kfree>
    8000158e:	b7c9                	j	80001550 <uvmunmap+0x72>
}
    80001590:	60a6                	ld	ra,72(sp)
    80001592:	6406                	ld	s0,64(sp)
    80001594:	74e2                	ld	s1,56(sp)
    80001596:	7942                	ld	s2,48(sp)
    80001598:	79a2                	ld	s3,40(sp)
    8000159a:	7a02                	ld	s4,32(sp)
    8000159c:	6ae2                	ld	s5,24(sp)
    8000159e:	6b42                	ld	s6,16(sp)
    800015a0:	6ba2                	ld	s7,8(sp)
    800015a2:	6161                	addi	sp,sp,80
    800015a4:	8082                	ret

00000000800015a6 <uvmcreate>:
{
    800015a6:	1101                	addi	sp,sp,-32
    800015a8:	ec06                	sd	ra,24(sp)
    800015aa:	e822                	sd	s0,16(sp)
    800015ac:	e426                	sd	s1,8(sp)
    800015ae:	1000                	addi	s0,sp,32
  pagetable = (pagetable_t) kalloc();
    800015b0:	fffff097          	auipc	ra,0xfffff
    800015b4:	494080e7          	jalr	1172(ra) # 80000a44 <kalloc>
  if(pagetable == 0)
    800015b8:	cd11                	beqz	a0,800015d4 <uvmcreate+0x2e>
    800015ba:	84aa                	mv	s1,a0
  memset(pagetable, 0, PGSIZE);
    800015bc:	6605                	lui	a2,0x1
    800015be:	4581                	li	a1,0
    800015c0:	00000097          	auipc	ra,0x0
    800015c4:	8d8080e7          	jalr	-1832(ra) # 80000e98 <memset>
}
    800015c8:	8526                	mv	a0,s1
    800015ca:	60e2                	ld	ra,24(sp)
    800015cc:	6442                	ld	s0,16(sp)
    800015ce:	64a2                	ld	s1,8(sp)
    800015d0:	6105                	addi	sp,sp,32
    800015d2:	8082                	ret
    panic("uvmcreate: out of memory");
    800015d4:	00007517          	auipc	a0,0x7
    800015d8:	dbc50513          	addi	a0,a0,-580 # 80008390 <userret+0x300>
    800015dc:	fffff097          	auipc	ra,0xfffff
    800015e0:	f6c080e7          	jalr	-148(ra) # 80000548 <panic>

00000000800015e4 <uvminit>:
{
    800015e4:	7179                	addi	sp,sp,-48
    800015e6:	f406                	sd	ra,40(sp)
    800015e8:	f022                	sd	s0,32(sp)
    800015ea:	ec26                	sd	s1,24(sp)
    800015ec:	e84a                	sd	s2,16(sp)
    800015ee:	e44e                	sd	s3,8(sp)
    800015f0:	e052                	sd	s4,0(sp)
    800015f2:	1800                	addi	s0,sp,48
  if(sz >= PGSIZE)
    800015f4:	6785                	lui	a5,0x1
    800015f6:	04f67863          	bgeu	a2,a5,80001646 <uvminit+0x62>
    800015fa:	8a2a                	mv	s4,a0
    800015fc:	89ae                	mv	s3,a1
    800015fe:	84b2                	mv	s1,a2
  mem = kalloc();
    80001600:	fffff097          	auipc	ra,0xfffff
    80001604:	444080e7          	jalr	1092(ra) # 80000a44 <kalloc>
    80001608:	892a                	mv	s2,a0
  memset(mem, 0, PGSIZE);
    8000160a:	6605                	lui	a2,0x1
    8000160c:	4581                	li	a1,0
    8000160e:	00000097          	auipc	ra,0x0
    80001612:	88a080e7          	jalr	-1910(ra) # 80000e98 <memset>
  mappages(pagetable, 0, PGSIZE, (uint64)mem, PTE_W|PTE_R|PTE_X|PTE_U);
    80001616:	4779                	li	a4,30
    80001618:	86ca                	mv	a3,s2
    8000161a:	6605                	lui	a2,0x1
    8000161c:	4581                	li	a1,0
    8000161e:	8552                	mv	a0,s4
    80001620:	00000097          	auipc	ra,0x0
    80001624:	d12080e7          	jalr	-750(ra) # 80001332 <mappages>
  memmove(mem, src, sz);
    80001628:	8626                	mv	a2,s1
    8000162a:	85ce                	mv	a1,s3
    8000162c:	854a                	mv	a0,s2
    8000162e:	00000097          	auipc	ra,0x0
    80001632:	8c6080e7          	jalr	-1850(ra) # 80000ef4 <memmove>
}
    80001636:	70a2                	ld	ra,40(sp)
    80001638:	7402                	ld	s0,32(sp)
    8000163a:	64e2                	ld	s1,24(sp)
    8000163c:	6942                	ld	s2,16(sp)
    8000163e:	69a2                	ld	s3,8(sp)
    80001640:	6a02                	ld	s4,0(sp)
    80001642:	6145                	addi	sp,sp,48
    80001644:	8082                	ret
    panic("inituvm: more than a page");
    80001646:	00007517          	auipc	a0,0x7
    8000164a:	d6a50513          	addi	a0,a0,-662 # 800083b0 <userret+0x320>
    8000164e:	fffff097          	auipc	ra,0xfffff
    80001652:	efa080e7          	jalr	-262(ra) # 80000548 <panic>

0000000080001656 <uvmdealloc>:
{
    80001656:	1101                	addi	sp,sp,-32
    80001658:	ec06                	sd	ra,24(sp)
    8000165a:	e822                	sd	s0,16(sp)
    8000165c:	e426                	sd	s1,8(sp)
    8000165e:	1000                	addi	s0,sp,32
    return oldsz;
    80001660:	84ae                	mv	s1,a1
  if(newsz >= oldsz)
    80001662:	00b67d63          	bgeu	a2,a1,8000167c <uvmdealloc+0x26>
    80001666:	84b2                	mv	s1,a2
  uint64 newup = PGROUNDUP(newsz);
    80001668:	6785                	lui	a5,0x1
    8000166a:	17fd                	addi	a5,a5,-1
    8000166c:	00f60733          	add	a4,a2,a5
    80001670:	76fd                	lui	a3,0xfffff
    80001672:	8f75                	and	a4,a4,a3
  if(newup < PGROUNDUP(oldsz))
    80001674:	97ae                	add	a5,a5,a1
    80001676:	8ff5                	and	a5,a5,a3
    80001678:	00f76863          	bltu	a4,a5,80001688 <uvmdealloc+0x32>
}
    8000167c:	8526                	mv	a0,s1
    8000167e:	60e2                	ld	ra,24(sp)
    80001680:	6442                	ld	s0,16(sp)
    80001682:	64a2                	ld	s1,8(sp)
    80001684:	6105                	addi	sp,sp,32
    80001686:	8082                	ret
    uvmunmap(pagetable, newup, oldsz - newup, 1);
    80001688:	4685                	li	a3,1
    8000168a:	40e58633          	sub	a2,a1,a4
    8000168e:	85ba                	mv	a1,a4
    80001690:	00000097          	auipc	ra,0x0
    80001694:	e4e080e7          	jalr	-434(ra) # 800014de <uvmunmap>
    80001698:	b7d5                	j	8000167c <uvmdealloc+0x26>

000000008000169a <uvmalloc>:
  if(newsz < oldsz)
    8000169a:	0ab66163          	bltu	a2,a1,8000173c <uvmalloc+0xa2>
{
    8000169e:	7139                	addi	sp,sp,-64
    800016a0:	fc06                	sd	ra,56(sp)
    800016a2:	f822                	sd	s0,48(sp)
    800016a4:	f426                	sd	s1,40(sp)
    800016a6:	f04a                	sd	s2,32(sp)
    800016a8:	ec4e                	sd	s3,24(sp)
    800016aa:	e852                	sd	s4,16(sp)
    800016ac:	e456                	sd	s5,8(sp)
    800016ae:	0080                	addi	s0,sp,64
    800016b0:	8aaa                	mv	s5,a0
    800016b2:	8a32                	mv	s4,a2
  oldsz = PGROUNDUP(oldsz);
    800016b4:	6985                	lui	s3,0x1
    800016b6:	19fd                	addi	s3,s3,-1
    800016b8:	95ce                	add	a1,a1,s3
    800016ba:	79fd                	lui	s3,0xfffff
    800016bc:	0135f9b3          	and	s3,a1,s3
  for(; a < newsz; a += PGSIZE){
    800016c0:	08c9f063          	bgeu	s3,a2,80001740 <uvmalloc+0xa6>
  a = oldsz;
    800016c4:	894e                	mv	s2,s3
    mem = kalloc();
    800016c6:	fffff097          	auipc	ra,0xfffff
    800016ca:	37e080e7          	jalr	894(ra) # 80000a44 <kalloc>
    800016ce:	84aa                	mv	s1,a0
    if(mem == 0){
    800016d0:	c51d                	beqz	a0,800016fe <uvmalloc+0x64>
    memset(mem, 0, PGSIZE);
    800016d2:	6605                	lui	a2,0x1
    800016d4:	4581                	li	a1,0
    800016d6:	fffff097          	auipc	ra,0xfffff
    800016da:	7c2080e7          	jalr	1986(ra) # 80000e98 <memset>
    if(mappages(pagetable, a, PGSIZE, (uint64)mem, PTE_W|PTE_X|PTE_R|PTE_U) != 0){
    800016de:	4779                	li	a4,30
    800016e0:	86a6                	mv	a3,s1
    800016e2:	6605                	lui	a2,0x1
    800016e4:	85ca                	mv	a1,s2
    800016e6:	8556                	mv	a0,s5
    800016e8:	00000097          	auipc	ra,0x0
    800016ec:	c4a080e7          	jalr	-950(ra) # 80001332 <mappages>
    800016f0:	e905                	bnez	a0,80001720 <uvmalloc+0x86>
  for(; a < newsz; a += PGSIZE){
    800016f2:	6785                	lui	a5,0x1
    800016f4:	993e                	add	s2,s2,a5
    800016f6:	fd4968e3          	bltu	s2,s4,800016c6 <uvmalloc+0x2c>
  return newsz;
    800016fa:	8552                	mv	a0,s4
    800016fc:	a809                	j	8000170e <uvmalloc+0x74>
      uvmdealloc(pagetable, a, oldsz);
    800016fe:	864e                	mv	a2,s3
    80001700:	85ca                	mv	a1,s2
    80001702:	8556                	mv	a0,s5
    80001704:	00000097          	auipc	ra,0x0
    80001708:	f52080e7          	jalr	-174(ra) # 80001656 <uvmdealloc>
      return 0;
    8000170c:	4501                	li	a0,0
}
    8000170e:	70e2                	ld	ra,56(sp)
    80001710:	7442                	ld	s0,48(sp)
    80001712:	74a2                	ld	s1,40(sp)
    80001714:	7902                	ld	s2,32(sp)
    80001716:	69e2                	ld	s3,24(sp)
    80001718:	6a42                	ld	s4,16(sp)
    8000171a:	6aa2                	ld	s5,8(sp)
    8000171c:	6121                	addi	sp,sp,64
    8000171e:	8082                	ret
      kfree(mem);
    80001720:	8526                	mv	a0,s1
    80001722:	fffff097          	auipc	ra,0xfffff
    80001726:	142080e7          	jalr	322(ra) # 80000864 <kfree>
      uvmdealloc(pagetable, a, oldsz);
    8000172a:	864e                	mv	a2,s3
    8000172c:	85ca                	mv	a1,s2
    8000172e:	8556                	mv	a0,s5
    80001730:	00000097          	auipc	ra,0x0
    80001734:	f26080e7          	jalr	-218(ra) # 80001656 <uvmdealloc>
      return 0;
    80001738:	4501                	li	a0,0
    8000173a:	bfd1                	j	8000170e <uvmalloc+0x74>
    return oldsz;
    8000173c:	852e                	mv	a0,a1
}
    8000173e:	8082                	ret
  return newsz;
    80001740:	8532                	mv	a0,a2
    80001742:	b7f1                	j	8000170e <uvmalloc+0x74>

0000000080001744 <uvmfree>:

// Free user memory pages,
// then free page-table pages.
void
uvmfree(pagetable_t pagetable, uint64 sz)
{
    80001744:	1101                	addi	sp,sp,-32
    80001746:	ec06                	sd	ra,24(sp)
    80001748:	e822                	sd	s0,16(sp)
    8000174a:	e426                	sd	s1,8(sp)
    8000174c:	1000                	addi	s0,sp,32
    8000174e:	84aa                	mv	s1,a0
    80001750:	862e                	mv	a2,a1
  uvmunmap(pagetable, 0, sz, 1);
    80001752:	4685                	li	a3,1
    80001754:	4581                	li	a1,0
    80001756:	00000097          	auipc	ra,0x0
    8000175a:	d88080e7          	jalr	-632(ra) # 800014de <uvmunmap>
  freewalk(pagetable);
    8000175e:	8526                	mv	a0,s1
    80001760:	00000097          	auipc	ra,0x0
    80001764:	aa4080e7          	jalr	-1372(ra) # 80001204 <freewalk>
}
    80001768:	60e2                	ld	ra,24(sp)
    8000176a:	6442                	ld	s0,16(sp)
    8000176c:	64a2                	ld	s1,8(sp)
    8000176e:	6105                	addi	sp,sp,32
    80001770:	8082                	ret

0000000080001772 <uvmcopy>:
  pte_t *pte;
  uint64 pa, i;
  uint flags;
  char *mem;

  for(i = 0; i < sz; i += PGSIZE){
    80001772:	c671                	beqz	a2,8000183e <uvmcopy+0xcc>
{
    80001774:	715d                	addi	sp,sp,-80
    80001776:	e486                	sd	ra,72(sp)
    80001778:	e0a2                	sd	s0,64(sp)
    8000177a:	fc26                	sd	s1,56(sp)
    8000177c:	f84a                	sd	s2,48(sp)
    8000177e:	f44e                	sd	s3,40(sp)
    80001780:	f052                	sd	s4,32(sp)
    80001782:	ec56                	sd	s5,24(sp)
    80001784:	e85a                	sd	s6,16(sp)
    80001786:	e45e                	sd	s7,8(sp)
    80001788:	0880                	addi	s0,sp,80
    8000178a:	8b2a                	mv	s6,a0
    8000178c:	8aae                	mv	s5,a1
    8000178e:	8a32                	mv	s4,a2
  for(i = 0; i < sz; i += PGSIZE){
    80001790:	4981                	li	s3,0
    if((pte = walk(old, i, 0)) == 0)
    80001792:	4601                	li	a2,0
    80001794:	85ce                	mv	a1,s3
    80001796:	855a                	mv	a0,s6
    80001798:	00000097          	auipc	ra,0x0
    8000179c:	9c6080e7          	jalr	-1594(ra) # 8000115e <walk>
    800017a0:	c531                	beqz	a0,800017ec <uvmcopy+0x7a>
      panic("uvmcopy: pte should exist");
    if((*pte & PTE_V) == 0)
    800017a2:	6118                	ld	a4,0(a0)
    800017a4:	00177793          	andi	a5,a4,1
    800017a8:	cbb1                	beqz	a5,800017fc <uvmcopy+0x8a>
      panic("uvmcopy: page not present");
    pa = PTE2PA(*pte);
    800017aa:	00a75593          	srli	a1,a4,0xa
    800017ae:	00c59b93          	slli	s7,a1,0xc
    flags = PTE_FLAGS(*pte);
    800017b2:	3ff77493          	andi	s1,a4,1023
    if((mem = kalloc()) == 0)
    800017b6:	fffff097          	auipc	ra,0xfffff
    800017ba:	28e080e7          	jalr	654(ra) # 80000a44 <kalloc>
    800017be:	892a                	mv	s2,a0
    800017c0:	c939                	beqz	a0,80001816 <uvmcopy+0xa4>
      goto err;
    memmove(mem, (char*)pa, PGSIZE);
    800017c2:	6605                	lui	a2,0x1
    800017c4:	85de                	mv	a1,s7
    800017c6:	fffff097          	auipc	ra,0xfffff
    800017ca:	72e080e7          	jalr	1838(ra) # 80000ef4 <memmove>
    if(mappages(new, i, PGSIZE, (uint64)mem, flags) != 0){
    800017ce:	8726                	mv	a4,s1
    800017d0:	86ca                	mv	a3,s2
    800017d2:	6605                	lui	a2,0x1
    800017d4:	85ce                	mv	a1,s3
    800017d6:	8556                	mv	a0,s5
    800017d8:	00000097          	auipc	ra,0x0
    800017dc:	b5a080e7          	jalr	-1190(ra) # 80001332 <mappages>
    800017e0:	e515                	bnez	a0,8000180c <uvmcopy+0x9a>
  for(i = 0; i < sz; i += PGSIZE){
    800017e2:	6785                	lui	a5,0x1
    800017e4:	99be                	add	s3,s3,a5
    800017e6:	fb49e6e3          	bltu	s3,s4,80001792 <uvmcopy+0x20>
    800017ea:	a83d                	j	80001828 <uvmcopy+0xb6>
      panic("uvmcopy: pte should exist");
    800017ec:	00007517          	auipc	a0,0x7
    800017f0:	be450513          	addi	a0,a0,-1052 # 800083d0 <userret+0x340>
    800017f4:	fffff097          	auipc	ra,0xfffff
    800017f8:	d54080e7          	jalr	-684(ra) # 80000548 <panic>
      panic("uvmcopy: page not present");
    800017fc:	00007517          	auipc	a0,0x7
    80001800:	bf450513          	addi	a0,a0,-1036 # 800083f0 <userret+0x360>
    80001804:	fffff097          	auipc	ra,0xfffff
    80001808:	d44080e7          	jalr	-700(ra) # 80000548 <panic>
      kfree(mem);
    8000180c:	854a                	mv	a0,s2
    8000180e:	fffff097          	auipc	ra,0xfffff
    80001812:	056080e7          	jalr	86(ra) # 80000864 <kfree>
    }
  }
  return 0;

 err:
  uvmunmap(new, 0, i, 1);
    80001816:	4685                	li	a3,1
    80001818:	864e                	mv	a2,s3
    8000181a:	4581                	li	a1,0
    8000181c:	8556                	mv	a0,s5
    8000181e:	00000097          	auipc	ra,0x0
    80001822:	cc0080e7          	jalr	-832(ra) # 800014de <uvmunmap>
  return -1;
    80001826:	557d                	li	a0,-1
}
    80001828:	60a6                	ld	ra,72(sp)
    8000182a:	6406                	ld	s0,64(sp)
    8000182c:	74e2                	ld	s1,56(sp)
    8000182e:	7942                	ld	s2,48(sp)
    80001830:	79a2                	ld	s3,40(sp)
    80001832:	7a02                	ld	s4,32(sp)
    80001834:	6ae2                	ld	s5,24(sp)
    80001836:	6b42                	ld	s6,16(sp)
    80001838:	6ba2                	ld	s7,8(sp)
    8000183a:	6161                	addi	sp,sp,80
    8000183c:	8082                	ret
  return 0;
    8000183e:	4501                	li	a0,0
}
    80001840:	8082                	ret

0000000080001842 <uvmclear>:

// mark a PTE invalid for user access.
// used by exec for the user stack guard page.
void
uvmclear(pagetable_t pagetable, uint64 va)
{
    80001842:	1141                	addi	sp,sp,-16
    80001844:	e406                	sd	ra,8(sp)
    80001846:	e022                	sd	s0,0(sp)
    80001848:	0800                	addi	s0,sp,16
  pte_t *pte;
  
  pte = walk(pagetable, va, 0);
    8000184a:	4601                	li	a2,0
    8000184c:	00000097          	auipc	ra,0x0
    80001850:	912080e7          	jalr	-1774(ra) # 8000115e <walk>
  if(pte == 0)
    80001854:	c901                	beqz	a0,80001864 <uvmclear+0x22>
    panic("uvmclear");
  *pte &= ~PTE_U;
    80001856:	611c                	ld	a5,0(a0)
    80001858:	9bbd                	andi	a5,a5,-17
    8000185a:	e11c                	sd	a5,0(a0)
}
    8000185c:	60a2                	ld	ra,8(sp)
    8000185e:	6402                	ld	s0,0(sp)
    80001860:	0141                	addi	sp,sp,16
    80001862:	8082                	ret
    panic("uvmclear");
    80001864:	00007517          	auipc	a0,0x7
    80001868:	bac50513          	addi	a0,a0,-1108 # 80008410 <userret+0x380>
    8000186c:	fffff097          	auipc	ra,0xfffff
    80001870:	cdc080e7          	jalr	-804(ra) # 80000548 <panic>

0000000080001874 <copyout>:
int
copyout(pagetable_t pagetable, uint64 dstva, char *src, uint64 len)
{
  uint64 n, va0, pa0;

  while(len > 0){
    80001874:	c6bd                	beqz	a3,800018e2 <copyout+0x6e>
{
    80001876:	715d                	addi	sp,sp,-80
    80001878:	e486                	sd	ra,72(sp)
    8000187a:	e0a2                	sd	s0,64(sp)
    8000187c:	fc26                	sd	s1,56(sp)
    8000187e:	f84a                	sd	s2,48(sp)
    80001880:	f44e                	sd	s3,40(sp)
    80001882:	f052                	sd	s4,32(sp)
    80001884:	ec56                	sd	s5,24(sp)
    80001886:	e85a                	sd	s6,16(sp)
    80001888:	e45e                	sd	s7,8(sp)
    8000188a:	e062                	sd	s8,0(sp)
    8000188c:	0880                	addi	s0,sp,80
    8000188e:	8b2a                	mv	s6,a0
    80001890:	8c2e                	mv	s8,a1
    80001892:	8a32                	mv	s4,a2
    80001894:	89b6                	mv	s3,a3
    va0 = PGROUNDDOWN(dstva);
    80001896:	7bfd                	lui	s7,0xfffff
    pa0 = walkaddr(pagetable, va0);
    if(pa0 == 0)
      return -1;
    n = PGSIZE - (dstva - va0);
    80001898:	6a85                	lui	s5,0x1
    8000189a:	a015                	j	800018be <copyout+0x4a>
    if(n > len)
      n = len;
    memmove((void *)(pa0 + (dstva - va0)), src, n);
    8000189c:	9562                	add	a0,a0,s8
    8000189e:	0004861b          	sext.w	a2,s1
    800018a2:	85d2                	mv	a1,s4
    800018a4:	41250533          	sub	a0,a0,s2
    800018a8:	fffff097          	auipc	ra,0xfffff
    800018ac:	64c080e7          	jalr	1612(ra) # 80000ef4 <memmove>

    len -= n;
    800018b0:	409989b3          	sub	s3,s3,s1
    src += n;
    800018b4:	9a26                	add	s4,s4,s1
    dstva = va0 + PGSIZE;
    800018b6:	01590c33          	add	s8,s2,s5
  while(len > 0){
    800018ba:	02098263          	beqz	s3,800018de <copyout+0x6a>
    va0 = PGROUNDDOWN(dstva);
    800018be:	017c7933          	and	s2,s8,s7
    pa0 = walkaddr(pagetable, va0);
    800018c2:	85ca                	mv	a1,s2
    800018c4:	855a                	mv	a0,s6
    800018c6:	00000097          	auipc	ra,0x0
    800018ca:	9cc080e7          	jalr	-1588(ra) # 80001292 <walkaddr>
    if(pa0 == 0)
    800018ce:	cd01                	beqz	a0,800018e6 <copyout+0x72>
    n = PGSIZE - (dstva - va0);
    800018d0:	418904b3          	sub	s1,s2,s8
    800018d4:	94d6                	add	s1,s1,s5
    if(n > len)
    800018d6:	fc99f3e3          	bgeu	s3,s1,8000189c <copyout+0x28>
    800018da:	84ce                	mv	s1,s3
    800018dc:	b7c1                	j	8000189c <copyout+0x28>
  }
  return 0;
    800018de:	4501                	li	a0,0
    800018e0:	a021                	j	800018e8 <copyout+0x74>
    800018e2:	4501                	li	a0,0
}
    800018e4:	8082                	ret
      return -1;
    800018e6:	557d                	li	a0,-1
}
    800018e8:	60a6                	ld	ra,72(sp)
    800018ea:	6406                	ld	s0,64(sp)
    800018ec:	74e2                	ld	s1,56(sp)
    800018ee:	7942                	ld	s2,48(sp)
    800018f0:	79a2                	ld	s3,40(sp)
    800018f2:	7a02                	ld	s4,32(sp)
    800018f4:	6ae2                	ld	s5,24(sp)
    800018f6:	6b42                	ld	s6,16(sp)
    800018f8:	6ba2                	ld	s7,8(sp)
    800018fa:	6c02                	ld	s8,0(sp)
    800018fc:	6161                	addi	sp,sp,80
    800018fe:	8082                	ret

0000000080001900 <copyin>:
int
copyin(pagetable_t pagetable, char *dst, uint64 srcva, uint64 len)
{
  uint64 n, va0, pa0;

  while(len > 0){
    80001900:	caa5                	beqz	a3,80001970 <copyin+0x70>
{
    80001902:	715d                	addi	sp,sp,-80
    80001904:	e486                	sd	ra,72(sp)
    80001906:	e0a2                	sd	s0,64(sp)
    80001908:	fc26                	sd	s1,56(sp)
    8000190a:	f84a                	sd	s2,48(sp)
    8000190c:	f44e                	sd	s3,40(sp)
    8000190e:	f052                	sd	s4,32(sp)
    80001910:	ec56                	sd	s5,24(sp)
    80001912:	e85a                	sd	s6,16(sp)
    80001914:	e45e                	sd	s7,8(sp)
    80001916:	e062                	sd	s8,0(sp)
    80001918:	0880                	addi	s0,sp,80
    8000191a:	8b2a                	mv	s6,a0
    8000191c:	8a2e                	mv	s4,a1
    8000191e:	8c32                	mv	s8,a2
    80001920:	89b6                	mv	s3,a3
    va0 = PGROUNDDOWN(srcva);
    80001922:	7bfd                	lui	s7,0xfffff
    pa0 = walkaddr(pagetable, va0);
    if(pa0 == 0)
      return -1;
    n = PGSIZE - (srcva - va0);
    80001924:	6a85                	lui	s5,0x1
    80001926:	a01d                	j	8000194c <copyin+0x4c>
    if(n > len)
      n = len;
    memmove(dst, (void *)(pa0 + (srcva - va0)), n);
    80001928:	018505b3          	add	a1,a0,s8
    8000192c:	0004861b          	sext.w	a2,s1
    80001930:	412585b3          	sub	a1,a1,s2
    80001934:	8552                	mv	a0,s4
    80001936:	fffff097          	auipc	ra,0xfffff
    8000193a:	5be080e7          	jalr	1470(ra) # 80000ef4 <memmove>

    len -= n;
    8000193e:	409989b3          	sub	s3,s3,s1
    dst += n;
    80001942:	9a26                	add	s4,s4,s1
    srcva = va0 + PGSIZE;
    80001944:	01590c33          	add	s8,s2,s5
  while(len > 0){
    80001948:	02098263          	beqz	s3,8000196c <copyin+0x6c>
    va0 = PGROUNDDOWN(srcva);
    8000194c:	017c7933          	and	s2,s8,s7
    pa0 = walkaddr(pagetable, va0);
    80001950:	85ca                	mv	a1,s2
    80001952:	855a                	mv	a0,s6
    80001954:	00000097          	auipc	ra,0x0
    80001958:	93e080e7          	jalr	-1730(ra) # 80001292 <walkaddr>
    if(pa0 == 0)
    8000195c:	cd01                	beqz	a0,80001974 <copyin+0x74>
    n = PGSIZE - (srcva - va0);
    8000195e:	418904b3          	sub	s1,s2,s8
    80001962:	94d6                	add	s1,s1,s5
    if(n > len)
    80001964:	fc99f2e3          	bgeu	s3,s1,80001928 <copyin+0x28>
    80001968:	84ce                	mv	s1,s3
    8000196a:	bf7d                	j	80001928 <copyin+0x28>
  }
  return 0;
    8000196c:	4501                	li	a0,0
    8000196e:	a021                	j	80001976 <copyin+0x76>
    80001970:	4501                	li	a0,0
}
    80001972:	8082                	ret
      return -1;
    80001974:	557d                	li	a0,-1
}
    80001976:	60a6                	ld	ra,72(sp)
    80001978:	6406                	ld	s0,64(sp)
    8000197a:	74e2                	ld	s1,56(sp)
    8000197c:	7942                	ld	s2,48(sp)
    8000197e:	79a2                	ld	s3,40(sp)
    80001980:	7a02                	ld	s4,32(sp)
    80001982:	6ae2                	ld	s5,24(sp)
    80001984:	6b42                	ld	s6,16(sp)
    80001986:	6ba2                	ld	s7,8(sp)
    80001988:	6c02                	ld	s8,0(sp)
    8000198a:	6161                	addi	sp,sp,80
    8000198c:	8082                	ret

000000008000198e <copyinstr>:
copyinstr(pagetable_t pagetable, char *dst, uint64 srcva, uint64 max)
{
  uint64 n, va0, pa0;
  int got_null = 0;

  while(got_null == 0 && max > 0){
    8000198e:	c6c5                	beqz	a3,80001a36 <copyinstr+0xa8>
{
    80001990:	715d                	addi	sp,sp,-80
    80001992:	e486                	sd	ra,72(sp)
    80001994:	e0a2                	sd	s0,64(sp)
    80001996:	fc26                	sd	s1,56(sp)
    80001998:	f84a                	sd	s2,48(sp)
    8000199a:	f44e                	sd	s3,40(sp)
    8000199c:	f052                	sd	s4,32(sp)
    8000199e:	ec56                	sd	s5,24(sp)
    800019a0:	e85a                	sd	s6,16(sp)
    800019a2:	e45e                	sd	s7,8(sp)
    800019a4:	0880                	addi	s0,sp,80
    800019a6:	8a2a                	mv	s4,a0
    800019a8:	8b2e                	mv	s6,a1
    800019aa:	8bb2                	mv	s7,a2
    800019ac:	84b6                	mv	s1,a3
    va0 = PGROUNDDOWN(srcva);
    800019ae:	7afd                	lui	s5,0xfffff
    pa0 = walkaddr(pagetable, va0);
    if(pa0 == 0)
      return -1;
    n = PGSIZE - (srcva - va0);
    800019b0:	6985                	lui	s3,0x1
    800019b2:	a035                	j	800019de <copyinstr+0x50>
      n = max;

    char *p = (char *) (pa0 + (srcva - va0));
    while(n > 0){
      if(*p == '\0'){
        *dst = '\0';
    800019b4:	00078023          	sb	zero,0(a5) # 1000 <_entry-0x7ffff000>
    800019b8:	4785                	li	a5,1
      dst++;
    }

    srcva = va0 + PGSIZE;
  }
  if(got_null){
    800019ba:	0017b793          	seqz	a5,a5
    800019be:	40f00533          	neg	a0,a5
    return 0;
  } else {
    return -1;
  }
}
    800019c2:	60a6                	ld	ra,72(sp)
    800019c4:	6406                	ld	s0,64(sp)
    800019c6:	74e2                	ld	s1,56(sp)
    800019c8:	7942                	ld	s2,48(sp)
    800019ca:	79a2                	ld	s3,40(sp)
    800019cc:	7a02                	ld	s4,32(sp)
    800019ce:	6ae2                	ld	s5,24(sp)
    800019d0:	6b42                	ld	s6,16(sp)
    800019d2:	6ba2                	ld	s7,8(sp)
    800019d4:	6161                	addi	sp,sp,80
    800019d6:	8082                	ret
    srcva = va0 + PGSIZE;
    800019d8:	01390bb3          	add	s7,s2,s3
  while(got_null == 0 && max > 0){
    800019dc:	c8a9                	beqz	s1,80001a2e <copyinstr+0xa0>
    va0 = PGROUNDDOWN(srcva);
    800019de:	015bf933          	and	s2,s7,s5
    pa0 = walkaddr(pagetable, va0);
    800019e2:	85ca                	mv	a1,s2
    800019e4:	8552                	mv	a0,s4
    800019e6:	00000097          	auipc	ra,0x0
    800019ea:	8ac080e7          	jalr	-1876(ra) # 80001292 <walkaddr>
    if(pa0 == 0)
    800019ee:	c131                	beqz	a0,80001a32 <copyinstr+0xa4>
    n = PGSIZE - (srcva - va0);
    800019f0:	41790833          	sub	a6,s2,s7
    800019f4:	984e                	add	a6,a6,s3
    if(n > max)
    800019f6:	0104f363          	bgeu	s1,a6,800019fc <copyinstr+0x6e>
    800019fa:	8826                	mv	a6,s1
    char *p = (char *) (pa0 + (srcva - va0));
    800019fc:	955e                	add	a0,a0,s7
    800019fe:	41250533          	sub	a0,a0,s2
    while(n > 0){
    80001a02:	fc080be3          	beqz	a6,800019d8 <copyinstr+0x4a>
    80001a06:	985a                	add	a6,a6,s6
    80001a08:	87da                	mv	a5,s6
      if(*p == '\0'){
    80001a0a:	41650633          	sub	a2,a0,s6
    80001a0e:	14fd                	addi	s1,s1,-1
    80001a10:	9b26                	add	s6,s6,s1
    80001a12:	00f60733          	add	a4,a2,a5
    80001a16:	00074703          	lbu	a4,0(a4) # fffffffffffff000 <end+0xffffffff7ffcefa4>
    80001a1a:	df49                	beqz	a4,800019b4 <copyinstr+0x26>
        *dst = *p;
    80001a1c:	00e78023          	sb	a4,0(a5)
      --max;
    80001a20:	40fb04b3          	sub	s1,s6,a5
      dst++;
    80001a24:	0785                	addi	a5,a5,1
    while(n > 0){
    80001a26:	ff0796e3          	bne	a5,a6,80001a12 <copyinstr+0x84>
      dst++;
    80001a2a:	8b42                	mv	s6,a6
    80001a2c:	b775                	j	800019d8 <copyinstr+0x4a>
    80001a2e:	4781                	li	a5,0
    80001a30:	b769                	j	800019ba <copyinstr+0x2c>
      return -1;
    80001a32:	557d                	li	a0,-1
    80001a34:	b779                	j	800019c2 <copyinstr+0x34>
  int got_null = 0;
    80001a36:	4781                	li	a5,0
  if(got_null){
    80001a38:	0017b793          	seqz	a5,a5
    80001a3c:	40f00533          	neg	a0,a5
}
    80001a40:	8082                	ret

0000000080001a42 <wakeup1>:

// Wake up p if it is sleeping in wait(); used by exit().
// Caller must hold p->lock.
static void
wakeup1(struct proc *p)
{
    80001a42:	1101                	addi	sp,sp,-32
    80001a44:	ec06                	sd	ra,24(sp)
    80001a46:	e822                	sd	s0,16(sp)
    80001a48:	e426                	sd	s1,8(sp)
    80001a4a:	1000                	addi	s0,sp,32
    80001a4c:	84aa                	mv	s1,a0
  if(!holding(&p->lock))
    80001a4e:	fffff097          	auipc	ra,0xfffff
    80001a52:	19c080e7          	jalr	412(ra) # 80000bea <holding>
    80001a56:	c909                	beqz	a0,80001a68 <wakeup1+0x26>
    panic("wakeup1");
  if(p->chan == p && p->state == SLEEPING) {
    80001a58:	789c                	ld	a5,48(s1)
    80001a5a:	00978f63          	beq	a5,s1,80001a78 <wakeup1+0x36>
    p->state = RUNNABLE;
  }
}
    80001a5e:	60e2                	ld	ra,24(sp)
    80001a60:	6442                	ld	s0,16(sp)
    80001a62:	64a2                	ld	s1,8(sp)
    80001a64:	6105                	addi	sp,sp,32
    80001a66:	8082                	ret
    panic("wakeup1");
    80001a68:	00007517          	auipc	a0,0x7
    80001a6c:	9b850513          	addi	a0,a0,-1608 # 80008420 <userret+0x390>
    80001a70:	fffff097          	auipc	ra,0xfffff
    80001a74:	ad8080e7          	jalr	-1320(ra) # 80000548 <panic>
  if(p->chan == p && p->state == SLEEPING) {
    80001a78:	5098                	lw	a4,32(s1)
    80001a7a:	4785                	li	a5,1
    80001a7c:	fef711e3          	bne	a4,a5,80001a5e <wakeup1+0x1c>
    p->state = RUNNABLE;
    80001a80:	4789                	li	a5,2
    80001a82:	d09c                	sw	a5,32(s1)
}
    80001a84:	bfe9                	j	80001a5e <wakeup1+0x1c>

0000000080001a86 <procinit>:
{
    80001a86:	715d                	addi	sp,sp,-80
    80001a88:	e486                	sd	ra,72(sp)
    80001a8a:	e0a2                	sd	s0,64(sp)
    80001a8c:	fc26                	sd	s1,56(sp)
    80001a8e:	f84a                	sd	s2,48(sp)
    80001a90:	f44e                	sd	s3,40(sp)
    80001a92:	f052                	sd	s4,32(sp)
    80001a94:	ec56                	sd	s5,24(sp)
    80001a96:	e85a                	sd	s6,16(sp)
    80001a98:	e45e                	sd	s7,8(sp)
    80001a9a:	0880                	addi	s0,sp,80
  initlock(&pid_lock, "nextpid");
    80001a9c:	00007597          	auipc	a1,0x7
    80001aa0:	98c58593          	addi	a1,a1,-1652 # 80008428 <userret+0x398>
    80001aa4:	00013517          	auipc	a0,0x13
    80001aa8:	eb450513          	addi	a0,a0,-332 # 80014958 <pid_lock>
    80001aac:	fffff097          	auipc	ra,0xfffff
    80001ab0:	030080e7          	jalr	48(ra) # 80000adc <initlock>
  for(p = proc; p < &proc[NPROC]; p++) {
    80001ab4:	00013917          	auipc	s2,0x13
    80001ab8:	2c490913          	addi	s2,s2,708 # 80014d78 <proc>
      initlock(&p->lock, "proc");
    80001abc:	00007b97          	auipc	s7,0x7
    80001ac0:	974b8b93          	addi	s7,s7,-1676 # 80008430 <userret+0x3a0>
      uint64 va = KSTACK((int) (p - proc));
    80001ac4:	8b4a                	mv	s6,s2
    80001ac6:	00007a97          	auipc	s5,0x7
    80001aca:	0faa8a93          	addi	s5,s5,250 # 80008bc0 <syscalls+0xb8>
    80001ace:	040009b7          	lui	s3,0x4000
    80001ad2:	19fd                	addi	s3,s3,-1
    80001ad4:	09b2                	slli	s3,s3,0xc
  for(p = proc; p < &proc[NPROC]; p++) {
    80001ad6:	00019a17          	auipc	s4,0x19
    80001ada:	ea2a0a13          	addi	s4,s4,-350 # 8001a978 <tickslock>
      initlock(&p->lock, "proc");
    80001ade:	85de                	mv	a1,s7
    80001ae0:	854a                	mv	a0,s2
    80001ae2:	fffff097          	auipc	ra,0xfffff
    80001ae6:	ffa080e7          	jalr	-6(ra) # 80000adc <initlock>
      char *pa = kalloc();
    80001aea:	fffff097          	auipc	ra,0xfffff
    80001aee:	f5a080e7          	jalr	-166(ra) # 80000a44 <kalloc>
    80001af2:	85aa                	mv	a1,a0
      if(pa == 0)
    80001af4:	c929                	beqz	a0,80001b46 <procinit+0xc0>
      uint64 va = KSTACK((int) (p - proc));
    80001af6:	416904b3          	sub	s1,s2,s6
    80001afa:	8491                	srai	s1,s1,0x4
    80001afc:	000ab783          	ld	a5,0(s5)
    80001b00:	02f484b3          	mul	s1,s1,a5
    80001b04:	2485                	addiw	s1,s1,1
    80001b06:	00d4949b          	slliw	s1,s1,0xd
    80001b0a:	409984b3          	sub	s1,s3,s1
      kvmmap(va, (uint64)pa, PGSIZE, PTE_R | PTE_W);
    80001b0e:	4699                	li	a3,6
    80001b10:	6605                	lui	a2,0x1
    80001b12:	8526                	mv	a0,s1
    80001b14:	00000097          	auipc	ra,0x0
    80001b18:	8ac080e7          	jalr	-1876(ra) # 800013c0 <kvmmap>
      p->kstack = va;
    80001b1c:	04993423          	sd	s1,72(s2)
  for(p = proc; p < &proc[NPROC]; p++) {
    80001b20:	17090913          	addi	s2,s2,368
    80001b24:	fb491de3          	bne	s2,s4,80001ade <procinit+0x58>
  kvminithart();
    80001b28:	fffff097          	auipc	ra,0xfffff
    80001b2c:	746080e7          	jalr	1862(ra) # 8000126e <kvminithart>
}
    80001b30:	60a6                	ld	ra,72(sp)
    80001b32:	6406                	ld	s0,64(sp)
    80001b34:	74e2                	ld	s1,56(sp)
    80001b36:	7942                	ld	s2,48(sp)
    80001b38:	79a2                	ld	s3,40(sp)
    80001b3a:	7a02                	ld	s4,32(sp)
    80001b3c:	6ae2                	ld	s5,24(sp)
    80001b3e:	6b42                	ld	s6,16(sp)
    80001b40:	6ba2                	ld	s7,8(sp)
    80001b42:	6161                	addi	sp,sp,80
    80001b44:	8082                	ret
        panic("kalloc");
    80001b46:	00007517          	auipc	a0,0x7
    80001b4a:	8f250513          	addi	a0,a0,-1806 # 80008438 <userret+0x3a8>
    80001b4e:	fffff097          	auipc	ra,0xfffff
    80001b52:	9fa080e7          	jalr	-1542(ra) # 80000548 <panic>

0000000080001b56 <cpuid>:
{
    80001b56:	1141                	addi	sp,sp,-16
    80001b58:	e422                	sd	s0,8(sp)
    80001b5a:	0800                	addi	s0,sp,16
  asm volatile("mv %0, tp" : "=r" (x) );
    80001b5c:	8512                	mv	a0,tp
}
    80001b5e:	2501                	sext.w	a0,a0
    80001b60:	6422                	ld	s0,8(sp)
    80001b62:	0141                	addi	sp,sp,16
    80001b64:	8082                	ret

0000000080001b66 <mycpu>:
mycpu(void) {
    80001b66:	1141                	addi	sp,sp,-16
    80001b68:	e422                	sd	s0,8(sp)
    80001b6a:	0800                	addi	s0,sp,16
    80001b6c:	8792                	mv	a5,tp
  struct cpu *c = &cpus[id];
    80001b6e:	2781                	sext.w	a5,a5
    80001b70:	079e                	slli	a5,a5,0x7
}
    80001b72:	00013517          	auipc	a0,0x13
    80001b76:	e0650513          	addi	a0,a0,-506 # 80014978 <cpus>
    80001b7a:	953e                	add	a0,a0,a5
    80001b7c:	6422                	ld	s0,8(sp)
    80001b7e:	0141                	addi	sp,sp,16
    80001b80:	8082                	ret

0000000080001b82 <myproc>:
myproc(void) {
    80001b82:	1101                	addi	sp,sp,-32
    80001b84:	ec06                	sd	ra,24(sp)
    80001b86:	e822                	sd	s0,16(sp)
    80001b88:	e426                	sd	s1,8(sp)
    80001b8a:	1000                	addi	s0,sp,32
  push_off();
    80001b8c:	fffff097          	auipc	ra,0xfffff
    80001b90:	fa6080e7          	jalr	-90(ra) # 80000b32 <push_off>
    80001b94:	8792                	mv	a5,tp
  struct proc *p = c->proc;
    80001b96:	2781                	sext.w	a5,a5
    80001b98:	079e                	slli	a5,a5,0x7
    80001b9a:	00013717          	auipc	a4,0x13
    80001b9e:	dbe70713          	addi	a4,a4,-578 # 80014958 <pid_lock>
    80001ba2:	97ba                	add	a5,a5,a4
    80001ba4:	7384                	ld	s1,32(a5)
  pop_off();
    80001ba6:	fffff097          	auipc	ra,0xfffff
    80001baa:	fd8080e7          	jalr	-40(ra) # 80000b7e <pop_off>
}
    80001bae:	8526                	mv	a0,s1
    80001bb0:	60e2                	ld	ra,24(sp)
    80001bb2:	6442                	ld	s0,16(sp)
    80001bb4:	64a2                	ld	s1,8(sp)
    80001bb6:	6105                	addi	sp,sp,32
    80001bb8:	8082                	ret

0000000080001bba <forkret>:
{
    80001bba:	1141                	addi	sp,sp,-16
    80001bbc:	e406                	sd	ra,8(sp)
    80001bbe:	e022                	sd	s0,0(sp)
    80001bc0:	0800                	addi	s0,sp,16
  release(&myproc()->lock);
    80001bc2:	00000097          	auipc	ra,0x0
    80001bc6:	fc0080e7          	jalr	-64(ra) # 80001b82 <myproc>
    80001bca:	fffff097          	auipc	ra,0xfffff
    80001bce:	0d0080e7          	jalr	208(ra) # 80000c9a <release>
  if (first) {
    80001bd2:	00007797          	auipc	a5,0x7
    80001bd6:	4627a783          	lw	a5,1122(a5) # 80009034 <first.1>
    80001bda:	eb89                	bnez	a5,80001bec <forkret+0x32>
  usertrapret();
    80001bdc:	00001097          	auipc	ra,0x1
    80001be0:	bdc080e7          	jalr	-1060(ra) # 800027b8 <usertrapret>
}
    80001be4:	60a2                	ld	ra,8(sp)
    80001be6:	6402                	ld	s0,0(sp)
    80001be8:	0141                	addi	sp,sp,16
    80001bea:	8082                	ret
    first = 0;
    80001bec:	00007797          	auipc	a5,0x7
    80001bf0:	4407a423          	sw	zero,1096(a5) # 80009034 <first.1>
    fsinit(minor(ROOTDEV));
    80001bf4:	4501                	li	a0,0
    80001bf6:	00002097          	auipc	ra,0x2
    80001bfa:	a20080e7          	jalr	-1504(ra) # 80003616 <fsinit>
    80001bfe:	bff9                	j	80001bdc <forkret+0x22>

0000000080001c00 <allocpid>:
allocpid() {
    80001c00:	1101                	addi	sp,sp,-32
    80001c02:	ec06                	sd	ra,24(sp)
    80001c04:	e822                	sd	s0,16(sp)
    80001c06:	e426                	sd	s1,8(sp)
    80001c08:	e04a                	sd	s2,0(sp)
    80001c0a:	1000                	addi	s0,sp,32
  acquire(&pid_lock);
    80001c0c:	00013917          	auipc	s2,0x13
    80001c10:	d4c90913          	addi	s2,s2,-692 # 80014958 <pid_lock>
    80001c14:	854a                	mv	a0,s2
    80001c16:	fffff097          	auipc	ra,0xfffff
    80001c1a:	014080e7          	jalr	20(ra) # 80000c2a <acquire>
  pid = nextpid;
    80001c1e:	00007797          	auipc	a5,0x7
    80001c22:	41a78793          	addi	a5,a5,1050 # 80009038 <nextpid>
    80001c26:	4384                	lw	s1,0(a5)
  nextpid = nextpid + 1;
    80001c28:	0014871b          	addiw	a4,s1,1
    80001c2c:	c398                	sw	a4,0(a5)
  release(&pid_lock);
    80001c2e:	854a                	mv	a0,s2
    80001c30:	fffff097          	auipc	ra,0xfffff
    80001c34:	06a080e7          	jalr	106(ra) # 80000c9a <release>
}
    80001c38:	8526                	mv	a0,s1
    80001c3a:	60e2                	ld	ra,24(sp)
    80001c3c:	6442                	ld	s0,16(sp)
    80001c3e:	64a2                	ld	s1,8(sp)
    80001c40:	6902                	ld	s2,0(sp)
    80001c42:	6105                	addi	sp,sp,32
    80001c44:	8082                	ret

0000000080001c46 <proc_pagetable>:
{
    80001c46:	1101                	addi	sp,sp,-32
    80001c48:	ec06                	sd	ra,24(sp)
    80001c4a:	e822                	sd	s0,16(sp)
    80001c4c:	e426                	sd	s1,8(sp)
    80001c4e:	e04a                	sd	s2,0(sp)
    80001c50:	1000                	addi	s0,sp,32
    80001c52:	892a                	mv	s2,a0
  pagetable = uvmcreate();
    80001c54:	00000097          	auipc	ra,0x0
    80001c58:	952080e7          	jalr	-1710(ra) # 800015a6 <uvmcreate>
    80001c5c:	84aa                	mv	s1,a0
  mappages(pagetable, TRAMPOLINE, PGSIZE,
    80001c5e:	4729                	li	a4,10
    80001c60:	00006697          	auipc	a3,0x6
    80001c64:	3a068693          	addi	a3,a3,928 # 80008000 <trampoline>
    80001c68:	6605                	lui	a2,0x1
    80001c6a:	040005b7          	lui	a1,0x4000
    80001c6e:	15fd                	addi	a1,a1,-1
    80001c70:	05b2                	slli	a1,a1,0xc
    80001c72:	fffff097          	auipc	ra,0xfffff
    80001c76:	6c0080e7          	jalr	1728(ra) # 80001332 <mappages>
  mappages(pagetable, TRAPFRAME, PGSIZE,
    80001c7a:	4719                	li	a4,6
    80001c7c:	06093683          	ld	a3,96(s2)
    80001c80:	6605                	lui	a2,0x1
    80001c82:	020005b7          	lui	a1,0x2000
    80001c86:	15fd                	addi	a1,a1,-1
    80001c88:	05b6                	slli	a1,a1,0xd
    80001c8a:	8526                	mv	a0,s1
    80001c8c:	fffff097          	auipc	ra,0xfffff
    80001c90:	6a6080e7          	jalr	1702(ra) # 80001332 <mappages>
}
    80001c94:	8526                	mv	a0,s1
    80001c96:	60e2                	ld	ra,24(sp)
    80001c98:	6442                	ld	s0,16(sp)
    80001c9a:	64a2                	ld	s1,8(sp)
    80001c9c:	6902                	ld	s2,0(sp)
    80001c9e:	6105                	addi	sp,sp,32
    80001ca0:	8082                	ret

0000000080001ca2 <allocproc>:
{
    80001ca2:	1101                	addi	sp,sp,-32
    80001ca4:	ec06                	sd	ra,24(sp)
    80001ca6:	e822                	sd	s0,16(sp)
    80001ca8:	e426                	sd	s1,8(sp)
    80001caa:	e04a                	sd	s2,0(sp)
    80001cac:	1000                	addi	s0,sp,32
  for(p = proc; p < &proc[NPROC]; p++) {
    80001cae:	00013497          	auipc	s1,0x13
    80001cb2:	0ca48493          	addi	s1,s1,202 # 80014d78 <proc>
    80001cb6:	00019917          	auipc	s2,0x19
    80001cba:	cc290913          	addi	s2,s2,-830 # 8001a978 <tickslock>
    acquire(&p->lock);
    80001cbe:	8526                	mv	a0,s1
    80001cc0:	fffff097          	auipc	ra,0xfffff
    80001cc4:	f6a080e7          	jalr	-150(ra) # 80000c2a <acquire>
    if(p->state == UNUSED) {
    80001cc8:	509c                	lw	a5,32(s1)
    80001cca:	cf81                	beqz	a5,80001ce2 <allocproc+0x40>
      release(&p->lock);
    80001ccc:	8526                	mv	a0,s1
    80001cce:	fffff097          	auipc	ra,0xfffff
    80001cd2:	fcc080e7          	jalr	-52(ra) # 80000c9a <release>
  for(p = proc; p < &proc[NPROC]; p++) {
    80001cd6:	17048493          	addi	s1,s1,368
    80001cda:	ff2492e3          	bne	s1,s2,80001cbe <allocproc+0x1c>
  return 0;
    80001cde:	4481                	li	s1,0
    80001ce0:	a0a9                	j	80001d2a <allocproc+0x88>
  p->pid = allocpid();
    80001ce2:	00000097          	auipc	ra,0x0
    80001ce6:	f1e080e7          	jalr	-226(ra) # 80001c00 <allocpid>
    80001cea:	c0a8                	sw	a0,64(s1)
  if((p->tf = (struct trapframe *)kalloc()) == 0){
    80001cec:	fffff097          	auipc	ra,0xfffff
    80001cf0:	d58080e7          	jalr	-680(ra) # 80000a44 <kalloc>
    80001cf4:	892a                	mv	s2,a0
    80001cf6:	f0a8                	sd	a0,96(s1)
    80001cf8:	c121                	beqz	a0,80001d38 <allocproc+0x96>
  p->pagetable = proc_pagetable(p);
    80001cfa:	8526                	mv	a0,s1
    80001cfc:	00000097          	auipc	ra,0x0
    80001d00:	f4a080e7          	jalr	-182(ra) # 80001c46 <proc_pagetable>
    80001d04:	eca8                	sd	a0,88(s1)
  memset(&p->context, 0, sizeof p->context);
    80001d06:	07000613          	li	a2,112
    80001d0a:	4581                	li	a1,0
    80001d0c:	06848513          	addi	a0,s1,104
    80001d10:	fffff097          	auipc	ra,0xfffff
    80001d14:	188080e7          	jalr	392(ra) # 80000e98 <memset>
  p->context.ra = (uint64)forkret;
    80001d18:	00000797          	auipc	a5,0x0
    80001d1c:	ea278793          	addi	a5,a5,-350 # 80001bba <forkret>
    80001d20:	f4bc                	sd	a5,104(s1)
  p->context.sp = p->kstack + PGSIZE;
    80001d22:	64bc                	ld	a5,72(s1)
    80001d24:	6705                	lui	a4,0x1
    80001d26:	97ba                	add	a5,a5,a4
    80001d28:	f8bc                	sd	a5,112(s1)
}
    80001d2a:	8526                	mv	a0,s1
    80001d2c:	60e2                	ld	ra,24(sp)
    80001d2e:	6442                	ld	s0,16(sp)
    80001d30:	64a2                	ld	s1,8(sp)
    80001d32:	6902                	ld	s2,0(sp)
    80001d34:	6105                	addi	sp,sp,32
    80001d36:	8082                	ret
    release(&p->lock);
    80001d38:	8526                	mv	a0,s1
    80001d3a:	fffff097          	auipc	ra,0xfffff
    80001d3e:	f60080e7          	jalr	-160(ra) # 80000c9a <release>
    return 0;
    80001d42:	84ca                	mv	s1,s2
    80001d44:	b7dd                	j	80001d2a <allocproc+0x88>

0000000080001d46 <proc_freepagetable>:
{
    80001d46:	1101                	addi	sp,sp,-32
    80001d48:	ec06                	sd	ra,24(sp)
    80001d4a:	e822                	sd	s0,16(sp)
    80001d4c:	e426                	sd	s1,8(sp)
    80001d4e:	e04a                	sd	s2,0(sp)
    80001d50:	1000                	addi	s0,sp,32
    80001d52:	84aa                	mv	s1,a0
    80001d54:	892e                	mv	s2,a1
  uvmunmap(pagetable, TRAMPOLINE, PGSIZE, 0);
    80001d56:	4681                	li	a3,0
    80001d58:	6605                	lui	a2,0x1
    80001d5a:	040005b7          	lui	a1,0x4000
    80001d5e:	15fd                	addi	a1,a1,-1
    80001d60:	05b2                	slli	a1,a1,0xc
    80001d62:	fffff097          	auipc	ra,0xfffff
    80001d66:	77c080e7          	jalr	1916(ra) # 800014de <uvmunmap>
  uvmunmap(pagetable, TRAPFRAME, PGSIZE, 0);
    80001d6a:	4681                	li	a3,0
    80001d6c:	6605                	lui	a2,0x1
    80001d6e:	020005b7          	lui	a1,0x2000
    80001d72:	15fd                	addi	a1,a1,-1
    80001d74:	05b6                	slli	a1,a1,0xd
    80001d76:	8526                	mv	a0,s1
    80001d78:	fffff097          	auipc	ra,0xfffff
    80001d7c:	766080e7          	jalr	1894(ra) # 800014de <uvmunmap>
  if(sz > 0)
    80001d80:	00091863          	bnez	s2,80001d90 <proc_freepagetable+0x4a>
}
    80001d84:	60e2                	ld	ra,24(sp)
    80001d86:	6442                	ld	s0,16(sp)
    80001d88:	64a2                	ld	s1,8(sp)
    80001d8a:	6902                	ld	s2,0(sp)
    80001d8c:	6105                	addi	sp,sp,32
    80001d8e:	8082                	ret
    uvmfree(pagetable, sz);
    80001d90:	85ca                	mv	a1,s2
    80001d92:	8526                	mv	a0,s1
    80001d94:	00000097          	auipc	ra,0x0
    80001d98:	9b0080e7          	jalr	-1616(ra) # 80001744 <uvmfree>
}
    80001d9c:	b7e5                	j	80001d84 <proc_freepagetable+0x3e>

0000000080001d9e <freeproc>:
{
    80001d9e:	1101                	addi	sp,sp,-32
    80001da0:	ec06                	sd	ra,24(sp)
    80001da2:	e822                	sd	s0,16(sp)
    80001da4:	e426                	sd	s1,8(sp)
    80001da6:	1000                	addi	s0,sp,32
    80001da8:	84aa                	mv	s1,a0
  if(p->tf)
    80001daa:	7128                	ld	a0,96(a0)
    80001dac:	c509                	beqz	a0,80001db6 <freeproc+0x18>
    kfree((void*)p->tf);
    80001dae:	fffff097          	auipc	ra,0xfffff
    80001db2:	ab6080e7          	jalr	-1354(ra) # 80000864 <kfree>
  p->tf = 0;
    80001db6:	0604b023          	sd	zero,96(s1)
  if(p->pagetable)
    80001dba:	6ca8                	ld	a0,88(s1)
    80001dbc:	c511                	beqz	a0,80001dc8 <freeproc+0x2a>
    proc_freepagetable(p->pagetable, p->sz);
    80001dbe:	68ac                	ld	a1,80(s1)
    80001dc0:	00000097          	auipc	ra,0x0
    80001dc4:	f86080e7          	jalr	-122(ra) # 80001d46 <proc_freepagetable>
  p->pagetable = 0;
    80001dc8:	0404bc23          	sd	zero,88(s1)
  p->sz = 0;
    80001dcc:	0404b823          	sd	zero,80(s1)
  p->pid = 0;
    80001dd0:	0404a023          	sw	zero,64(s1)
  p->parent = 0;
    80001dd4:	0204b423          	sd	zero,40(s1)
  p->name[0] = 0;
    80001dd8:	16048023          	sb	zero,352(s1)
  p->chan = 0;
    80001ddc:	0204b823          	sd	zero,48(s1)
  p->killed = 0;
    80001de0:	0204ac23          	sw	zero,56(s1)
  p->xstate = 0;
    80001de4:	0204ae23          	sw	zero,60(s1)
  p->state = UNUSED;
    80001de8:	0204a023          	sw	zero,32(s1)
}
    80001dec:	60e2                	ld	ra,24(sp)
    80001dee:	6442                	ld	s0,16(sp)
    80001df0:	64a2                	ld	s1,8(sp)
    80001df2:	6105                	addi	sp,sp,32
    80001df4:	8082                	ret

0000000080001df6 <userinit>:
{
    80001df6:	1101                	addi	sp,sp,-32
    80001df8:	ec06                	sd	ra,24(sp)
    80001dfa:	e822                	sd	s0,16(sp)
    80001dfc:	e426                	sd	s1,8(sp)
    80001dfe:	1000                	addi	s0,sp,32
  p = allocproc();
    80001e00:	00000097          	auipc	ra,0x0
    80001e04:	ea2080e7          	jalr	-350(ra) # 80001ca2 <allocproc>
    80001e08:	84aa                	mv	s1,a0
  initproc = p;
    80001e0a:	0002e797          	auipc	a5,0x2e
    80001e0e:	22a7b723          	sd	a0,558(a5) # 80030038 <initproc>
  uvminit(p->pagetable, initcode, sizeof(initcode));
    80001e12:	03300613          	li	a2,51
    80001e16:	00007597          	auipc	a1,0x7
    80001e1a:	1ea58593          	addi	a1,a1,490 # 80009000 <initcode>
    80001e1e:	6d28                	ld	a0,88(a0)
    80001e20:	fffff097          	auipc	ra,0xfffff
    80001e24:	7c4080e7          	jalr	1988(ra) # 800015e4 <uvminit>
  p->sz = PGSIZE;
    80001e28:	6785                	lui	a5,0x1
    80001e2a:	e8bc                	sd	a5,80(s1)
  p->tf->epc = 0;      // user program counter
    80001e2c:	70b8                	ld	a4,96(s1)
    80001e2e:	00073c23          	sd	zero,24(a4) # 1018 <_entry-0x7fffefe8>
  p->tf->sp = PGSIZE;  // user stack pointer
    80001e32:	70b8                	ld	a4,96(s1)
    80001e34:	fb1c                	sd	a5,48(a4)
  safestrcpy(p->name, "initcode", sizeof(p->name));
    80001e36:	4641                	li	a2,16
    80001e38:	00006597          	auipc	a1,0x6
    80001e3c:	60858593          	addi	a1,a1,1544 # 80008440 <userret+0x3b0>
    80001e40:	16048513          	addi	a0,s1,352
    80001e44:	fffff097          	auipc	ra,0xfffff
    80001e48:	1a6080e7          	jalr	422(ra) # 80000fea <safestrcpy>
  p->cwd = namei("/");
    80001e4c:	00006517          	auipc	a0,0x6
    80001e50:	60450513          	addi	a0,a0,1540 # 80008450 <userret+0x3c0>
    80001e54:	00002097          	auipc	ra,0x2
    80001e58:	1c4080e7          	jalr	452(ra) # 80004018 <namei>
    80001e5c:	14a4bc23          	sd	a0,344(s1)
  p->state = RUNNABLE;
    80001e60:	4789                	li	a5,2
    80001e62:	d09c                	sw	a5,32(s1)
  release(&p->lock);
    80001e64:	8526                	mv	a0,s1
    80001e66:	fffff097          	auipc	ra,0xfffff
    80001e6a:	e34080e7          	jalr	-460(ra) # 80000c9a <release>
}
    80001e6e:	60e2                	ld	ra,24(sp)
    80001e70:	6442                	ld	s0,16(sp)
    80001e72:	64a2                	ld	s1,8(sp)
    80001e74:	6105                	addi	sp,sp,32
    80001e76:	8082                	ret

0000000080001e78 <growproc>:
{
    80001e78:	1101                	addi	sp,sp,-32
    80001e7a:	ec06                	sd	ra,24(sp)
    80001e7c:	e822                	sd	s0,16(sp)
    80001e7e:	e426                	sd	s1,8(sp)
    80001e80:	e04a                	sd	s2,0(sp)
    80001e82:	1000                	addi	s0,sp,32
    80001e84:	84aa                	mv	s1,a0
  struct proc *p = myproc();
    80001e86:	00000097          	auipc	ra,0x0
    80001e8a:	cfc080e7          	jalr	-772(ra) # 80001b82 <myproc>
    80001e8e:	892a                	mv	s2,a0
  sz = p->sz;
    80001e90:	692c                	ld	a1,80(a0)
    80001e92:	0005861b          	sext.w	a2,a1
  if(n > 0){
    80001e96:	00904f63          	bgtz	s1,80001eb4 <growproc+0x3c>
  } else if(n < 0){
    80001e9a:	0204cc63          	bltz	s1,80001ed2 <growproc+0x5a>
  p->sz = sz;
    80001e9e:	1602                	slli	a2,a2,0x20
    80001ea0:	9201                	srli	a2,a2,0x20
    80001ea2:	04c93823          	sd	a2,80(s2)
  return 0;
    80001ea6:	4501                	li	a0,0
}
    80001ea8:	60e2                	ld	ra,24(sp)
    80001eaa:	6442                	ld	s0,16(sp)
    80001eac:	64a2                	ld	s1,8(sp)
    80001eae:	6902                	ld	s2,0(sp)
    80001eb0:	6105                	addi	sp,sp,32
    80001eb2:	8082                	ret
    if((sz = uvmalloc(p->pagetable, sz, sz + n)) == 0) {
    80001eb4:	9e25                	addw	a2,a2,s1
    80001eb6:	1602                	slli	a2,a2,0x20
    80001eb8:	9201                	srli	a2,a2,0x20
    80001eba:	1582                	slli	a1,a1,0x20
    80001ebc:	9181                	srli	a1,a1,0x20
    80001ebe:	6d28                	ld	a0,88(a0)
    80001ec0:	fffff097          	auipc	ra,0xfffff
    80001ec4:	7da080e7          	jalr	2010(ra) # 8000169a <uvmalloc>
    80001ec8:	0005061b          	sext.w	a2,a0
    80001ecc:	fa69                	bnez	a2,80001e9e <growproc+0x26>
      return -1;
    80001ece:	557d                	li	a0,-1
    80001ed0:	bfe1                	j	80001ea8 <growproc+0x30>
    sz = uvmdealloc(p->pagetable, sz, sz + n);
    80001ed2:	9e25                	addw	a2,a2,s1
    80001ed4:	1602                	slli	a2,a2,0x20
    80001ed6:	9201                	srli	a2,a2,0x20
    80001ed8:	1582                	slli	a1,a1,0x20
    80001eda:	9181                	srli	a1,a1,0x20
    80001edc:	6d28                	ld	a0,88(a0)
    80001ede:	fffff097          	auipc	ra,0xfffff
    80001ee2:	778080e7          	jalr	1912(ra) # 80001656 <uvmdealloc>
    80001ee6:	0005061b          	sext.w	a2,a0
    80001eea:	bf55                	j	80001e9e <growproc+0x26>

0000000080001eec <fork>:
{
    80001eec:	7139                	addi	sp,sp,-64
    80001eee:	fc06                	sd	ra,56(sp)
    80001ef0:	f822                	sd	s0,48(sp)
    80001ef2:	f426                	sd	s1,40(sp)
    80001ef4:	f04a                	sd	s2,32(sp)
    80001ef6:	ec4e                	sd	s3,24(sp)
    80001ef8:	e852                	sd	s4,16(sp)
    80001efa:	e456                	sd	s5,8(sp)
    80001efc:	0080                	addi	s0,sp,64
  struct proc *p = myproc();
    80001efe:	00000097          	auipc	ra,0x0
    80001f02:	c84080e7          	jalr	-892(ra) # 80001b82 <myproc>
    80001f06:	8aaa                	mv	s5,a0
  if((np = allocproc()) == 0){
    80001f08:	00000097          	auipc	ra,0x0
    80001f0c:	d9a080e7          	jalr	-614(ra) # 80001ca2 <allocproc>
    80001f10:	c17d                	beqz	a0,80001ff6 <fork+0x10a>
    80001f12:	8a2a                	mv	s4,a0
  if(uvmcopy(p->pagetable, np->pagetable, p->sz) < 0){
    80001f14:	050ab603          	ld	a2,80(s5)
    80001f18:	6d2c                	ld	a1,88(a0)
    80001f1a:	058ab503          	ld	a0,88(s5)
    80001f1e:	00000097          	auipc	ra,0x0
    80001f22:	854080e7          	jalr	-1964(ra) # 80001772 <uvmcopy>
    80001f26:	04054a63          	bltz	a0,80001f7a <fork+0x8e>
  np->sz = p->sz;
    80001f2a:	050ab783          	ld	a5,80(s5)
    80001f2e:	04fa3823          	sd	a5,80(s4)
  np->parent = p;
    80001f32:	035a3423          	sd	s5,40(s4)
  *(np->tf) = *(p->tf);
    80001f36:	060ab683          	ld	a3,96(s5)
    80001f3a:	87b6                	mv	a5,a3
    80001f3c:	060a3703          	ld	a4,96(s4)
    80001f40:	12068693          	addi	a3,a3,288
    80001f44:	0007b803          	ld	a6,0(a5) # 1000 <_entry-0x7ffff000>
    80001f48:	6788                	ld	a0,8(a5)
    80001f4a:	6b8c                	ld	a1,16(a5)
    80001f4c:	6f90                	ld	a2,24(a5)
    80001f4e:	01073023          	sd	a6,0(a4)
    80001f52:	e708                	sd	a0,8(a4)
    80001f54:	eb0c                	sd	a1,16(a4)
    80001f56:	ef10                	sd	a2,24(a4)
    80001f58:	02078793          	addi	a5,a5,32
    80001f5c:	02070713          	addi	a4,a4,32
    80001f60:	fed792e3          	bne	a5,a3,80001f44 <fork+0x58>
  np->tf->a0 = 0;
    80001f64:	060a3783          	ld	a5,96(s4)
    80001f68:	0607b823          	sd	zero,112(a5)
  for(i = 0; i < NOFILE; i++)
    80001f6c:	0d8a8493          	addi	s1,s5,216
    80001f70:	0d8a0913          	addi	s2,s4,216
    80001f74:	158a8993          	addi	s3,s5,344
    80001f78:	a00d                	j	80001f9a <fork+0xae>
    freeproc(np);
    80001f7a:	8552                	mv	a0,s4
    80001f7c:	00000097          	auipc	ra,0x0
    80001f80:	e22080e7          	jalr	-478(ra) # 80001d9e <freeproc>
    release(&np->lock);
    80001f84:	8552                	mv	a0,s4
    80001f86:	fffff097          	auipc	ra,0xfffff
    80001f8a:	d14080e7          	jalr	-748(ra) # 80000c9a <release>
    return -1;
    80001f8e:	54fd                	li	s1,-1
    80001f90:	a889                	j	80001fe2 <fork+0xf6>
  for(i = 0; i < NOFILE; i++)
    80001f92:	04a1                	addi	s1,s1,8
    80001f94:	0921                	addi	s2,s2,8
    80001f96:	01348b63          	beq	s1,s3,80001fac <fork+0xc0>
    if(p->ofile[i])
    80001f9a:	6088                	ld	a0,0(s1)
    80001f9c:	d97d                	beqz	a0,80001f92 <fork+0xa6>
      np->ofile[i] = filedup(p->ofile[i]);
    80001f9e:	00003097          	auipc	ra,0x3
    80001fa2:	81e080e7          	jalr	-2018(ra) # 800047bc <filedup>
    80001fa6:	00a93023          	sd	a0,0(s2)
    80001faa:	b7e5                	j	80001f92 <fork+0xa6>
  np->cwd = idup(p->cwd);
    80001fac:	158ab503          	ld	a0,344(s5)
    80001fb0:	00002097          	auipc	ra,0x2
    80001fb4:	8a0080e7          	jalr	-1888(ra) # 80003850 <idup>
    80001fb8:	14aa3c23          	sd	a0,344(s4)
  safestrcpy(np->name, p->name, sizeof(p->name));
    80001fbc:	4641                	li	a2,16
    80001fbe:	160a8593          	addi	a1,s5,352
    80001fc2:	160a0513          	addi	a0,s4,352
    80001fc6:	fffff097          	auipc	ra,0xfffff
    80001fca:	024080e7          	jalr	36(ra) # 80000fea <safestrcpy>
  pid = np->pid;
    80001fce:	040a2483          	lw	s1,64(s4)
  np->state = RUNNABLE;
    80001fd2:	4789                	li	a5,2
    80001fd4:	02fa2023          	sw	a5,32(s4)
  release(&np->lock);
    80001fd8:	8552                	mv	a0,s4
    80001fda:	fffff097          	auipc	ra,0xfffff
    80001fde:	cc0080e7          	jalr	-832(ra) # 80000c9a <release>
}
    80001fe2:	8526                	mv	a0,s1
    80001fe4:	70e2                	ld	ra,56(sp)
    80001fe6:	7442                	ld	s0,48(sp)
    80001fe8:	74a2                	ld	s1,40(sp)
    80001fea:	7902                	ld	s2,32(sp)
    80001fec:	69e2                	ld	s3,24(sp)
    80001fee:	6a42                	ld	s4,16(sp)
    80001ff0:	6aa2                	ld	s5,8(sp)
    80001ff2:	6121                	addi	sp,sp,64
    80001ff4:	8082                	ret
    return -1;
    80001ff6:	54fd                	li	s1,-1
    80001ff8:	b7ed                	j	80001fe2 <fork+0xf6>

0000000080001ffa <reparent>:
{
    80001ffa:	7179                	addi	sp,sp,-48
    80001ffc:	f406                	sd	ra,40(sp)
    80001ffe:	f022                	sd	s0,32(sp)
    80002000:	ec26                	sd	s1,24(sp)
    80002002:	e84a                	sd	s2,16(sp)
    80002004:	e44e                	sd	s3,8(sp)
    80002006:	e052                	sd	s4,0(sp)
    80002008:	1800                	addi	s0,sp,48
    8000200a:	892a                	mv	s2,a0
  for(pp = proc; pp < &proc[NPROC]; pp++){
    8000200c:	00013497          	auipc	s1,0x13
    80002010:	d6c48493          	addi	s1,s1,-660 # 80014d78 <proc>
      pp->parent = initproc;
    80002014:	0002ea17          	auipc	s4,0x2e
    80002018:	024a0a13          	addi	s4,s4,36 # 80030038 <initproc>
  for(pp = proc; pp < &proc[NPROC]; pp++){
    8000201c:	00019997          	auipc	s3,0x19
    80002020:	95c98993          	addi	s3,s3,-1700 # 8001a978 <tickslock>
    80002024:	a029                	j	8000202e <reparent+0x34>
    80002026:	17048493          	addi	s1,s1,368
    8000202a:	03348363          	beq	s1,s3,80002050 <reparent+0x56>
    if(pp->parent == p){
    8000202e:	749c                	ld	a5,40(s1)
    80002030:	ff279be3          	bne	a5,s2,80002026 <reparent+0x2c>
      acquire(&pp->lock);
    80002034:	8526                	mv	a0,s1
    80002036:	fffff097          	auipc	ra,0xfffff
    8000203a:	bf4080e7          	jalr	-1036(ra) # 80000c2a <acquire>
      pp->parent = initproc;
    8000203e:	000a3783          	ld	a5,0(s4)
    80002042:	f49c                	sd	a5,40(s1)
      release(&pp->lock);
    80002044:	8526                	mv	a0,s1
    80002046:	fffff097          	auipc	ra,0xfffff
    8000204a:	c54080e7          	jalr	-940(ra) # 80000c9a <release>
    8000204e:	bfe1                	j	80002026 <reparent+0x2c>
}
    80002050:	70a2                	ld	ra,40(sp)
    80002052:	7402                	ld	s0,32(sp)
    80002054:	64e2                	ld	s1,24(sp)
    80002056:	6942                	ld	s2,16(sp)
    80002058:	69a2                	ld	s3,8(sp)
    8000205a:	6a02                	ld	s4,0(sp)
    8000205c:	6145                	addi	sp,sp,48
    8000205e:	8082                	ret

0000000080002060 <scheduler>:
{
    80002060:	715d                	addi	sp,sp,-80
    80002062:	e486                	sd	ra,72(sp)
    80002064:	e0a2                	sd	s0,64(sp)
    80002066:	fc26                	sd	s1,56(sp)
    80002068:	f84a                	sd	s2,48(sp)
    8000206a:	f44e                	sd	s3,40(sp)
    8000206c:	f052                	sd	s4,32(sp)
    8000206e:	ec56                	sd	s5,24(sp)
    80002070:	e85a                	sd	s6,16(sp)
    80002072:	e45e                	sd	s7,8(sp)
    80002074:	e062                	sd	s8,0(sp)
    80002076:	0880                	addi	s0,sp,80
    80002078:	8792                	mv	a5,tp
  int id = r_tp();
    8000207a:	2781                	sext.w	a5,a5
  c->proc = 0;
    8000207c:	00779b13          	slli	s6,a5,0x7
    80002080:	00013717          	auipc	a4,0x13
    80002084:	8d870713          	addi	a4,a4,-1832 # 80014958 <pid_lock>
    80002088:	975a                	add	a4,a4,s6
    8000208a:	02073023          	sd	zero,32(a4)
        swtch(&c->scheduler, &p->context);
    8000208e:	00013717          	auipc	a4,0x13
    80002092:	8f270713          	addi	a4,a4,-1806 # 80014980 <cpus+0x8>
    80002096:	9b3a                	add	s6,s6,a4
        p->state = RUNNING;
    80002098:	4c0d                	li	s8,3
        c->proc = p;
    8000209a:	079e                	slli	a5,a5,0x7
    8000209c:	00013a17          	auipc	s4,0x13
    800020a0:	8bca0a13          	addi	s4,s4,-1860 # 80014958 <pid_lock>
    800020a4:	9a3e                	add	s4,s4,a5
        found = 1;
    800020a6:	4b85                	li	s7,1
    for(p = proc; p < &proc[NPROC]; p++) {
    800020a8:	00019997          	auipc	s3,0x19
    800020ac:	8d098993          	addi	s3,s3,-1840 # 8001a978 <tickslock>
    800020b0:	a08d                	j	80002112 <scheduler+0xb2>
      release(&p->lock);
    800020b2:	8526                	mv	a0,s1
    800020b4:	fffff097          	auipc	ra,0xfffff
    800020b8:	be6080e7          	jalr	-1050(ra) # 80000c9a <release>
    for(p = proc; p < &proc[NPROC]; p++) {
    800020bc:	17048493          	addi	s1,s1,368
    800020c0:	03348963          	beq	s1,s3,800020f2 <scheduler+0x92>
      acquire(&p->lock);
    800020c4:	8526                	mv	a0,s1
    800020c6:	fffff097          	auipc	ra,0xfffff
    800020ca:	b64080e7          	jalr	-1180(ra) # 80000c2a <acquire>
      if(p->state == RUNNABLE) {
    800020ce:	509c                	lw	a5,32(s1)
    800020d0:	ff2791e3          	bne	a5,s2,800020b2 <scheduler+0x52>
        p->state = RUNNING;
    800020d4:	0384a023          	sw	s8,32(s1)
        c->proc = p;
    800020d8:	029a3023          	sd	s1,32(s4)
        swtch(&c->scheduler, &p->context);
    800020dc:	06848593          	addi	a1,s1,104
    800020e0:	855a                	mv	a0,s6
    800020e2:	00000097          	auipc	ra,0x0
    800020e6:	62c080e7          	jalr	1580(ra) # 8000270e <swtch>
        c->proc = 0;
    800020ea:	020a3023          	sd	zero,32(s4)
        found = 1;
    800020ee:	8ade                	mv	s5,s7
    800020f0:	b7c9                	j	800020b2 <scheduler+0x52>
    if(found == 0){
    800020f2:	020a9063          	bnez	s5,80002112 <scheduler+0xb2>
  asm volatile("csrr %0, sie" : "=r" (x) );
    800020f6:	104027f3          	csrr	a5,sie
  w_sie(r_sie() | SIE_SEIE | SIE_STIE | SIE_SSIE);
    800020fa:	2227e793          	ori	a5,a5,546
  asm volatile("csrw sie, %0" : : "r" (x));
    800020fe:	10479073          	csrw	sie,a5
  asm volatile("csrr %0, sstatus" : "=r" (x) );
    80002102:	100027f3          	csrr	a5,sstatus
  w_sstatus(r_sstatus() | SSTATUS_SIE);
    80002106:	0027e793          	ori	a5,a5,2
  asm volatile("csrw sstatus, %0" : : "r" (x));
    8000210a:	10079073          	csrw	sstatus,a5
      asm volatile("wfi");
    8000210e:	10500073          	wfi
  asm volatile("csrr %0, sie" : "=r" (x) );
    80002112:	104027f3          	csrr	a5,sie
  w_sie(r_sie() | SIE_SEIE | SIE_STIE | SIE_SSIE);
    80002116:	2227e793          	ori	a5,a5,546
  asm volatile("csrw sie, %0" : : "r" (x));
    8000211a:	10479073          	csrw	sie,a5
  asm volatile("csrr %0, sstatus" : "=r" (x) );
    8000211e:	100027f3          	csrr	a5,sstatus
  w_sstatus(r_sstatus() | SSTATUS_SIE);
    80002122:	0027e793          	ori	a5,a5,2
  asm volatile("csrw sstatus, %0" : : "r" (x));
    80002126:	10079073          	csrw	sstatus,a5
    int found = 0;
    8000212a:	4a81                	li	s5,0
    for(p = proc; p < &proc[NPROC]; p++) {
    8000212c:	00013497          	auipc	s1,0x13
    80002130:	c4c48493          	addi	s1,s1,-948 # 80014d78 <proc>
      if(p->state == RUNNABLE) {
    80002134:	4909                	li	s2,2
    80002136:	b779                	j	800020c4 <scheduler+0x64>

0000000080002138 <sched>:
{
    80002138:	7179                	addi	sp,sp,-48
    8000213a:	f406                	sd	ra,40(sp)
    8000213c:	f022                	sd	s0,32(sp)
    8000213e:	ec26                	sd	s1,24(sp)
    80002140:	e84a                	sd	s2,16(sp)
    80002142:	e44e                	sd	s3,8(sp)
    80002144:	1800                	addi	s0,sp,48
  struct proc *p = myproc();
    80002146:	00000097          	auipc	ra,0x0
    8000214a:	a3c080e7          	jalr	-1476(ra) # 80001b82 <myproc>
    8000214e:	84aa                	mv	s1,a0
  if(!holding(&p->lock))
    80002150:	fffff097          	auipc	ra,0xfffff
    80002154:	a9a080e7          	jalr	-1382(ra) # 80000bea <holding>
    80002158:	c93d                	beqz	a0,800021ce <sched+0x96>
  asm volatile("mv %0, tp" : "=r" (x) );
    8000215a:	8792                	mv	a5,tp
  if(mycpu()->noff != 1)
    8000215c:	2781                	sext.w	a5,a5
    8000215e:	079e                	slli	a5,a5,0x7
    80002160:	00012717          	auipc	a4,0x12
    80002164:	7f870713          	addi	a4,a4,2040 # 80014958 <pid_lock>
    80002168:	97ba                	add	a5,a5,a4
    8000216a:	0987a703          	lw	a4,152(a5)
    8000216e:	4785                	li	a5,1
    80002170:	06f71763          	bne	a4,a5,800021de <sched+0xa6>
  if(p->state == RUNNING)
    80002174:	5098                	lw	a4,32(s1)
    80002176:	478d                	li	a5,3
    80002178:	06f70b63          	beq	a4,a5,800021ee <sched+0xb6>
  asm volatile("csrr %0, sstatus" : "=r" (x) );
    8000217c:	100027f3          	csrr	a5,sstatus
  return (x & SSTATUS_SIE) != 0;
    80002180:	8b89                	andi	a5,a5,2
  if(intr_get())
    80002182:	efb5                	bnez	a5,800021fe <sched+0xc6>
  asm volatile("mv %0, tp" : "=r" (x) );
    80002184:	8792                	mv	a5,tp
  intena = mycpu()->intena;
    80002186:	00012917          	auipc	s2,0x12
    8000218a:	7d290913          	addi	s2,s2,2002 # 80014958 <pid_lock>
    8000218e:	2781                	sext.w	a5,a5
    80002190:	079e                	slli	a5,a5,0x7
    80002192:	97ca                	add	a5,a5,s2
    80002194:	09c7a983          	lw	s3,156(a5)
    80002198:	8792                	mv	a5,tp
  swtch(&p->context, &mycpu()->scheduler);
    8000219a:	2781                	sext.w	a5,a5
    8000219c:	079e                	slli	a5,a5,0x7
    8000219e:	00012597          	auipc	a1,0x12
    800021a2:	7e258593          	addi	a1,a1,2018 # 80014980 <cpus+0x8>
    800021a6:	95be                	add	a1,a1,a5
    800021a8:	06848513          	addi	a0,s1,104
    800021ac:	00000097          	auipc	ra,0x0
    800021b0:	562080e7          	jalr	1378(ra) # 8000270e <swtch>
    800021b4:	8792                	mv	a5,tp
  mycpu()->intena = intena;
    800021b6:	2781                	sext.w	a5,a5
    800021b8:	079e                	slli	a5,a5,0x7
    800021ba:	97ca                	add	a5,a5,s2
    800021bc:	0937ae23          	sw	s3,156(a5)
}
    800021c0:	70a2                	ld	ra,40(sp)
    800021c2:	7402                	ld	s0,32(sp)
    800021c4:	64e2                	ld	s1,24(sp)
    800021c6:	6942                	ld	s2,16(sp)
    800021c8:	69a2                	ld	s3,8(sp)
    800021ca:	6145                	addi	sp,sp,48
    800021cc:	8082                	ret
    panic("sched p->lock");
    800021ce:	00006517          	auipc	a0,0x6
    800021d2:	28a50513          	addi	a0,a0,650 # 80008458 <userret+0x3c8>
    800021d6:	ffffe097          	auipc	ra,0xffffe
    800021da:	372080e7          	jalr	882(ra) # 80000548 <panic>
    panic("sched locks");
    800021de:	00006517          	auipc	a0,0x6
    800021e2:	28a50513          	addi	a0,a0,650 # 80008468 <userret+0x3d8>
    800021e6:	ffffe097          	auipc	ra,0xffffe
    800021ea:	362080e7          	jalr	866(ra) # 80000548 <panic>
    panic("sched running");
    800021ee:	00006517          	auipc	a0,0x6
    800021f2:	28a50513          	addi	a0,a0,650 # 80008478 <userret+0x3e8>
    800021f6:	ffffe097          	auipc	ra,0xffffe
    800021fa:	352080e7          	jalr	850(ra) # 80000548 <panic>
    panic("sched interruptible");
    800021fe:	00006517          	auipc	a0,0x6
    80002202:	28a50513          	addi	a0,a0,650 # 80008488 <userret+0x3f8>
    80002206:	ffffe097          	auipc	ra,0xffffe
    8000220a:	342080e7          	jalr	834(ra) # 80000548 <panic>

000000008000220e <exit>:
{
    8000220e:	7179                	addi	sp,sp,-48
    80002210:	f406                	sd	ra,40(sp)
    80002212:	f022                	sd	s0,32(sp)
    80002214:	ec26                	sd	s1,24(sp)
    80002216:	e84a                	sd	s2,16(sp)
    80002218:	e44e                	sd	s3,8(sp)
    8000221a:	e052                	sd	s4,0(sp)
    8000221c:	1800                	addi	s0,sp,48
    8000221e:	8a2a                	mv	s4,a0
  struct proc *p = myproc();
    80002220:	00000097          	auipc	ra,0x0
    80002224:	962080e7          	jalr	-1694(ra) # 80001b82 <myproc>
    80002228:	89aa                	mv	s3,a0
  if(p == initproc)
    8000222a:	0002e797          	auipc	a5,0x2e
    8000222e:	e0e7b783          	ld	a5,-498(a5) # 80030038 <initproc>
    80002232:	0d850493          	addi	s1,a0,216
    80002236:	15850913          	addi	s2,a0,344
    8000223a:	02a79363          	bne	a5,a0,80002260 <exit+0x52>
    panic("init exiting");
    8000223e:	00006517          	auipc	a0,0x6
    80002242:	26250513          	addi	a0,a0,610 # 800084a0 <userret+0x410>
    80002246:	ffffe097          	auipc	ra,0xffffe
    8000224a:	302080e7          	jalr	770(ra) # 80000548 <panic>
      fileclose(f);
    8000224e:	00002097          	auipc	ra,0x2
    80002252:	5c0080e7          	jalr	1472(ra) # 8000480e <fileclose>
      p->ofile[fd] = 0;
    80002256:	0004b023          	sd	zero,0(s1)
  for(int fd = 0; fd < NOFILE; fd++){
    8000225a:	04a1                	addi	s1,s1,8
    8000225c:	01248563          	beq	s1,s2,80002266 <exit+0x58>
    if(p->ofile[fd]){
    80002260:	6088                	ld	a0,0(s1)
    80002262:	f575                	bnez	a0,8000224e <exit+0x40>
    80002264:	bfdd                	j	8000225a <exit+0x4c>
  begin_op(ROOTDEV);
    80002266:	4501                	li	a0,0
    80002268:	00002097          	auipc	ra,0x2
    8000226c:	00c080e7          	jalr	12(ra) # 80004274 <begin_op>
  iput(p->cwd);
    80002270:	1589b503          	ld	a0,344(s3)
    80002274:	00001097          	auipc	ra,0x1
    80002278:	728080e7          	jalr	1832(ra) # 8000399c <iput>
  end_op(ROOTDEV);
    8000227c:	4501                	li	a0,0
    8000227e:	00002097          	auipc	ra,0x2
    80002282:	0a0080e7          	jalr	160(ra) # 8000431e <end_op>
  p->cwd = 0;
    80002286:	1409bc23          	sd	zero,344(s3)
  acquire(&initproc->lock);
    8000228a:	0002e497          	auipc	s1,0x2e
    8000228e:	dae48493          	addi	s1,s1,-594 # 80030038 <initproc>
    80002292:	6088                	ld	a0,0(s1)
    80002294:	fffff097          	auipc	ra,0xfffff
    80002298:	996080e7          	jalr	-1642(ra) # 80000c2a <acquire>
  wakeup1(initproc);
    8000229c:	6088                	ld	a0,0(s1)
    8000229e:	fffff097          	auipc	ra,0xfffff
    800022a2:	7a4080e7          	jalr	1956(ra) # 80001a42 <wakeup1>
  release(&initproc->lock);
    800022a6:	6088                	ld	a0,0(s1)
    800022a8:	fffff097          	auipc	ra,0xfffff
    800022ac:	9f2080e7          	jalr	-1550(ra) # 80000c9a <release>
  acquire(&p->lock);
    800022b0:	854e                	mv	a0,s3
    800022b2:	fffff097          	auipc	ra,0xfffff
    800022b6:	978080e7          	jalr	-1672(ra) # 80000c2a <acquire>
  struct proc *original_parent = p->parent;
    800022ba:	0289b483          	ld	s1,40(s3)
  release(&p->lock);
    800022be:	854e                	mv	a0,s3
    800022c0:	fffff097          	auipc	ra,0xfffff
    800022c4:	9da080e7          	jalr	-1574(ra) # 80000c9a <release>
  acquire(&original_parent->lock);
    800022c8:	8526                	mv	a0,s1
    800022ca:	fffff097          	auipc	ra,0xfffff
    800022ce:	960080e7          	jalr	-1696(ra) # 80000c2a <acquire>
  acquire(&p->lock);
    800022d2:	854e                	mv	a0,s3
    800022d4:	fffff097          	auipc	ra,0xfffff
    800022d8:	956080e7          	jalr	-1706(ra) # 80000c2a <acquire>
  reparent(p);
    800022dc:	854e                	mv	a0,s3
    800022de:	00000097          	auipc	ra,0x0
    800022e2:	d1c080e7          	jalr	-740(ra) # 80001ffa <reparent>
  wakeup1(original_parent);
    800022e6:	8526                	mv	a0,s1
    800022e8:	fffff097          	auipc	ra,0xfffff
    800022ec:	75a080e7          	jalr	1882(ra) # 80001a42 <wakeup1>
  p->xstate = status;
    800022f0:	0349ae23          	sw	s4,60(s3)
  p->state = ZOMBIE;
    800022f4:	4791                	li	a5,4
    800022f6:	02f9a023          	sw	a5,32(s3)
  release(&original_parent->lock);
    800022fa:	8526                	mv	a0,s1
    800022fc:	fffff097          	auipc	ra,0xfffff
    80002300:	99e080e7          	jalr	-1634(ra) # 80000c9a <release>
  sched();
    80002304:	00000097          	auipc	ra,0x0
    80002308:	e34080e7          	jalr	-460(ra) # 80002138 <sched>
  panic("zombie exit");
    8000230c:	00006517          	auipc	a0,0x6
    80002310:	1a450513          	addi	a0,a0,420 # 800084b0 <userret+0x420>
    80002314:	ffffe097          	auipc	ra,0xffffe
    80002318:	234080e7          	jalr	564(ra) # 80000548 <panic>

000000008000231c <yield>:
{
    8000231c:	1101                	addi	sp,sp,-32
    8000231e:	ec06                	sd	ra,24(sp)
    80002320:	e822                	sd	s0,16(sp)
    80002322:	e426                	sd	s1,8(sp)
    80002324:	1000                	addi	s0,sp,32
  struct proc *p = myproc();
    80002326:	00000097          	auipc	ra,0x0
    8000232a:	85c080e7          	jalr	-1956(ra) # 80001b82 <myproc>
    8000232e:	84aa                	mv	s1,a0
  acquire(&p->lock);
    80002330:	fffff097          	auipc	ra,0xfffff
    80002334:	8fa080e7          	jalr	-1798(ra) # 80000c2a <acquire>
  p->state = RUNNABLE;
    80002338:	4789                	li	a5,2
    8000233a:	d09c                	sw	a5,32(s1)
  sched();
    8000233c:	00000097          	auipc	ra,0x0
    80002340:	dfc080e7          	jalr	-516(ra) # 80002138 <sched>
  release(&p->lock);
    80002344:	8526                	mv	a0,s1
    80002346:	fffff097          	auipc	ra,0xfffff
    8000234a:	954080e7          	jalr	-1708(ra) # 80000c9a <release>
}
    8000234e:	60e2                	ld	ra,24(sp)
    80002350:	6442                	ld	s0,16(sp)
    80002352:	64a2                	ld	s1,8(sp)
    80002354:	6105                	addi	sp,sp,32
    80002356:	8082                	ret

0000000080002358 <sleep>:
{
    80002358:	7179                	addi	sp,sp,-48
    8000235a:	f406                	sd	ra,40(sp)
    8000235c:	f022                	sd	s0,32(sp)
    8000235e:	ec26                	sd	s1,24(sp)
    80002360:	e84a                	sd	s2,16(sp)
    80002362:	e44e                	sd	s3,8(sp)
    80002364:	1800                	addi	s0,sp,48
    80002366:	89aa                	mv	s3,a0
    80002368:	892e                	mv	s2,a1
  struct proc *p = myproc();
    8000236a:	00000097          	auipc	ra,0x0
    8000236e:	818080e7          	jalr	-2024(ra) # 80001b82 <myproc>
    80002372:	84aa                	mv	s1,a0
  if(lk != &p->lock){  //DOC: sleeplock0
    80002374:	05250663          	beq	a0,s2,800023c0 <sleep+0x68>
    acquire(&p->lock);  //DOC: sleeplock1
    80002378:	fffff097          	auipc	ra,0xfffff
    8000237c:	8b2080e7          	jalr	-1870(ra) # 80000c2a <acquire>
    release(lk);
    80002380:	854a                	mv	a0,s2
    80002382:	fffff097          	auipc	ra,0xfffff
    80002386:	918080e7          	jalr	-1768(ra) # 80000c9a <release>
  p->chan = chan;
    8000238a:	0334b823          	sd	s3,48(s1)
  p->state = SLEEPING;
    8000238e:	4785                	li	a5,1
    80002390:	d09c                	sw	a5,32(s1)
  sched();
    80002392:	00000097          	auipc	ra,0x0
    80002396:	da6080e7          	jalr	-602(ra) # 80002138 <sched>
  p->chan = 0;
    8000239a:	0204b823          	sd	zero,48(s1)
    release(&p->lock);
    8000239e:	8526                	mv	a0,s1
    800023a0:	fffff097          	auipc	ra,0xfffff
    800023a4:	8fa080e7          	jalr	-1798(ra) # 80000c9a <release>
    acquire(lk);
    800023a8:	854a                	mv	a0,s2
    800023aa:	fffff097          	auipc	ra,0xfffff
    800023ae:	880080e7          	jalr	-1920(ra) # 80000c2a <acquire>
}
    800023b2:	70a2                	ld	ra,40(sp)
    800023b4:	7402                	ld	s0,32(sp)
    800023b6:	64e2                	ld	s1,24(sp)
    800023b8:	6942                	ld	s2,16(sp)
    800023ba:	69a2                	ld	s3,8(sp)
    800023bc:	6145                	addi	sp,sp,48
    800023be:	8082                	ret
  p->chan = chan;
    800023c0:	03353823          	sd	s3,48(a0)
  p->state = SLEEPING;
    800023c4:	4785                	li	a5,1
    800023c6:	d11c                	sw	a5,32(a0)
  sched();
    800023c8:	00000097          	auipc	ra,0x0
    800023cc:	d70080e7          	jalr	-656(ra) # 80002138 <sched>
  p->chan = 0;
    800023d0:	0204b823          	sd	zero,48(s1)
  if(lk != &p->lock){
    800023d4:	bff9                	j	800023b2 <sleep+0x5a>

00000000800023d6 <wait>:
{
    800023d6:	715d                	addi	sp,sp,-80
    800023d8:	e486                	sd	ra,72(sp)
    800023da:	e0a2                	sd	s0,64(sp)
    800023dc:	fc26                	sd	s1,56(sp)
    800023de:	f84a                	sd	s2,48(sp)
    800023e0:	f44e                	sd	s3,40(sp)
    800023e2:	f052                	sd	s4,32(sp)
    800023e4:	ec56                	sd	s5,24(sp)
    800023e6:	e85a                	sd	s6,16(sp)
    800023e8:	e45e                	sd	s7,8(sp)
    800023ea:	0880                	addi	s0,sp,80
    800023ec:	8b2a                	mv	s6,a0
  struct proc *p = myproc();
    800023ee:	fffff097          	auipc	ra,0xfffff
    800023f2:	794080e7          	jalr	1940(ra) # 80001b82 <myproc>
    800023f6:	892a                	mv	s2,a0
  acquire(&p->lock);
    800023f8:	fffff097          	auipc	ra,0xfffff
    800023fc:	832080e7          	jalr	-1998(ra) # 80000c2a <acquire>
    havekids = 0;
    80002400:	4b81                	li	s7,0
        if(np->state == ZOMBIE){
    80002402:	4a11                	li	s4,4
        havekids = 1;
    80002404:	4a85                	li	s5,1
    for(np = proc; np < &proc[NPROC]; np++){
    80002406:	00018997          	auipc	s3,0x18
    8000240a:	57298993          	addi	s3,s3,1394 # 8001a978 <tickslock>
    havekids = 0;
    8000240e:	875e                	mv	a4,s7
    for(np = proc; np < &proc[NPROC]; np++){
    80002410:	00013497          	auipc	s1,0x13
    80002414:	96848493          	addi	s1,s1,-1688 # 80014d78 <proc>
    80002418:	a08d                	j	8000247a <wait+0xa4>
          pid = np->pid;
    8000241a:	0404a983          	lw	s3,64(s1)
          if(addr != 0 && copyout(p->pagetable, addr, (char *)&np->xstate,
    8000241e:	000b0e63          	beqz	s6,8000243a <wait+0x64>
    80002422:	4691                	li	a3,4
    80002424:	03c48613          	addi	a2,s1,60
    80002428:	85da                	mv	a1,s6
    8000242a:	05893503          	ld	a0,88(s2)
    8000242e:	fffff097          	auipc	ra,0xfffff
    80002432:	446080e7          	jalr	1094(ra) # 80001874 <copyout>
    80002436:	02054263          	bltz	a0,8000245a <wait+0x84>
          freeproc(np);
    8000243a:	8526                	mv	a0,s1
    8000243c:	00000097          	auipc	ra,0x0
    80002440:	962080e7          	jalr	-1694(ra) # 80001d9e <freeproc>
          release(&np->lock);
    80002444:	8526                	mv	a0,s1
    80002446:	fffff097          	auipc	ra,0xfffff
    8000244a:	854080e7          	jalr	-1964(ra) # 80000c9a <release>
          release(&p->lock);
    8000244e:	854a                	mv	a0,s2
    80002450:	fffff097          	auipc	ra,0xfffff
    80002454:	84a080e7          	jalr	-1974(ra) # 80000c9a <release>
          return pid;
    80002458:	a8a9                	j	800024b2 <wait+0xdc>
            release(&np->lock);
    8000245a:	8526                	mv	a0,s1
    8000245c:	fffff097          	auipc	ra,0xfffff
    80002460:	83e080e7          	jalr	-1986(ra) # 80000c9a <release>
            release(&p->lock);
    80002464:	854a                	mv	a0,s2
    80002466:	fffff097          	auipc	ra,0xfffff
    8000246a:	834080e7          	jalr	-1996(ra) # 80000c9a <release>
            return -1;
    8000246e:	59fd                	li	s3,-1
    80002470:	a089                	j	800024b2 <wait+0xdc>
    for(np = proc; np < &proc[NPROC]; np++){
    80002472:	17048493          	addi	s1,s1,368
    80002476:	03348463          	beq	s1,s3,8000249e <wait+0xc8>
      if(np->parent == p){
    8000247a:	749c                	ld	a5,40(s1)
    8000247c:	ff279be3          	bne	a5,s2,80002472 <wait+0x9c>
        acquire(&np->lock);
    80002480:	8526                	mv	a0,s1
    80002482:	ffffe097          	auipc	ra,0xffffe
    80002486:	7a8080e7          	jalr	1960(ra) # 80000c2a <acquire>
        if(np->state == ZOMBIE){
    8000248a:	509c                	lw	a5,32(s1)
    8000248c:	f94787e3          	beq	a5,s4,8000241a <wait+0x44>
        release(&np->lock);
    80002490:	8526                	mv	a0,s1
    80002492:	fffff097          	auipc	ra,0xfffff
    80002496:	808080e7          	jalr	-2040(ra) # 80000c9a <release>
        havekids = 1;
    8000249a:	8756                	mv	a4,s5
    8000249c:	bfd9                	j	80002472 <wait+0x9c>
    if(!havekids || p->killed){
    8000249e:	c701                	beqz	a4,800024a6 <wait+0xd0>
    800024a0:	03892783          	lw	a5,56(s2)
    800024a4:	c39d                	beqz	a5,800024ca <wait+0xf4>
      release(&p->lock);
    800024a6:	854a                	mv	a0,s2
    800024a8:	ffffe097          	auipc	ra,0xffffe
    800024ac:	7f2080e7          	jalr	2034(ra) # 80000c9a <release>
      return -1;
    800024b0:	59fd                	li	s3,-1
}
    800024b2:	854e                	mv	a0,s3
    800024b4:	60a6                	ld	ra,72(sp)
    800024b6:	6406                	ld	s0,64(sp)
    800024b8:	74e2                	ld	s1,56(sp)
    800024ba:	7942                	ld	s2,48(sp)
    800024bc:	79a2                	ld	s3,40(sp)
    800024be:	7a02                	ld	s4,32(sp)
    800024c0:	6ae2                	ld	s5,24(sp)
    800024c2:	6b42                	ld	s6,16(sp)
    800024c4:	6ba2                	ld	s7,8(sp)
    800024c6:	6161                	addi	sp,sp,80
    800024c8:	8082                	ret
    sleep(p, &p->lock);  //DOC: wait-sleep
    800024ca:	85ca                	mv	a1,s2
    800024cc:	854a                	mv	a0,s2
    800024ce:	00000097          	auipc	ra,0x0
    800024d2:	e8a080e7          	jalr	-374(ra) # 80002358 <sleep>
    havekids = 0;
    800024d6:	bf25                	j	8000240e <wait+0x38>

00000000800024d8 <wakeup>:
{
    800024d8:	7139                	addi	sp,sp,-64
    800024da:	fc06                	sd	ra,56(sp)
    800024dc:	f822                	sd	s0,48(sp)
    800024de:	f426                	sd	s1,40(sp)
    800024e0:	f04a                	sd	s2,32(sp)
    800024e2:	ec4e                	sd	s3,24(sp)
    800024e4:	e852                	sd	s4,16(sp)
    800024e6:	e456                	sd	s5,8(sp)
    800024e8:	0080                	addi	s0,sp,64
    800024ea:	8a2a                	mv	s4,a0
  for(p = proc; p < &proc[NPROC]; p++) {
    800024ec:	00013497          	auipc	s1,0x13
    800024f0:	88c48493          	addi	s1,s1,-1908 # 80014d78 <proc>
    if(p->state == SLEEPING && p->chan == chan) {
    800024f4:	4985                	li	s3,1
      p->state = RUNNABLE;
    800024f6:	4a89                	li	s5,2
  for(p = proc; p < &proc[NPROC]; p++) {
    800024f8:	00018917          	auipc	s2,0x18
    800024fc:	48090913          	addi	s2,s2,1152 # 8001a978 <tickslock>
    80002500:	a811                	j	80002514 <wakeup+0x3c>
    release(&p->lock);
    80002502:	8526                	mv	a0,s1
    80002504:	ffffe097          	auipc	ra,0xffffe
    80002508:	796080e7          	jalr	1942(ra) # 80000c9a <release>
  for(p = proc; p < &proc[NPROC]; p++) {
    8000250c:	17048493          	addi	s1,s1,368
    80002510:	03248063          	beq	s1,s2,80002530 <wakeup+0x58>
    acquire(&p->lock);
    80002514:	8526                	mv	a0,s1
    80002516:	ffffe097          	auipc	ra,0xffffe
    8000251a:	714080e7          	jalr	1812(ra) # 80000c2a <acquire>
    if(p->state == SLEEPING && p->chan == chan) {
    8000251e:	509c                	lw	a5,32(s1)
    80002520:	ff3791e3          	bne	a5,s3,80002502 <wakeup+0x2a>
    80002524:	789c                	ld	a5,48(s1)
    80002526:	fd479ee3          	bne	a5,s4,80002502 <wakeup+0x2a>
      p->state = RUNNABLE;
    8000252a:	0354a023          	sw	s5,32(s1)
    8000252e:	bfd1                	j	80002502 <wakeup+0x2a>
}
    80002530:	70e2                	ld	ra,56(sp)
    80002532:	7442                	ld	s0,48(sp)
    80002534:	74a2                	ld	s1,40(sp)
    80002536:	7902                	ld	s2,32(sp)
    80002538:	69e2                	ld	s3,24(sp)
    8000253a:	6a42                	ld	s4,16(sp)
    8000253c:	6aa2                	ld	s5,8(sp)
    8000253e:	6121                	addi	sp,sp,64
    80002540:	8082                	ret

0000000080002542 <kill>:
// Kill the process with the given pid.
// The victim won't exit until it tries to return
// to user space (see usertrap() in trap.c).
int
kill(int pid)
{
    80002542:	7179                	addi	sp,sp,-48
    80002544:	f406                	sd	ra,40(sp)
    80002546:	f022                	sd	s0,32(sp)
    80002548:	ec26                	sd	s1,24(sp)
    8000254a:	e84a                	sd	s2,16(sp)
    8000254c:	e44e                	sd	s3,8(sp)
    8000254e:	1800                	addi	s0,sp,48
    80002550:	892a                	mv	s2,a0
  struct proc *p;

  for(p = proc; p < &proc[NPROC]; p++){
    80002552:	00013497          	auipc	s1,0x13
    80002556:	82648493          	addi	s1,s1,-2010 # 80014d78 <proc>
    8000255a:	00018997          	auipc	s3,0x18
    8000255e:	41e98993          	addi	s3,s3,1054 # 8001a978 <tickslock>
    acquire(&p->lock);
    80002562:	8526                	mv	a0,s1
    80002564:	ffffe097          	auipc	ra,0xffffe
    80002568:	6c6080e7          	jalr	1734(ra) # 80000c2a <acquire>
    if(p->pid == pid){
    8000256c:	40bc                	lw	a5,64(s1)
    8000256e:	01278d63          	beq	a5,s2,80002588 <kill+0x46>
        p->state = RUNNABLE;
      }
      release(&p->lock);
      return 0;
    }
    release(&p->lock);
    80002572:	8526                	mv	a0,s1
    80002574:	ffffe097          	auipc	ra,0xffffe
    80002578:	726080e7          	jalr	1830(ra) # 80000c9a <release>
  for(p = proc; p < &proc[NPROC]; p++){
    8000257c:	17048493          	addi	s1,s1,368
    80002580:	ff3491e3          	bne	s1,s3,80002562 <kill+0x20>
  }
  return -1;
    80002584:	557d                	li	a0,-1
    80002586:	a821                	j	8000259e <kill+0x5c>
      p->killed = 1;
    80002588:	4785                	li	a5,1
    8000258a:	dc9c                	sw	a5,56(s1)
      if(p->state == SLEEPING){
    8000258c:	5098                	lw	a4,32(s1)
    8000258e:	00f70f63          	beq	a4,a5,800025ac <kill+0x6a>
      release(&p->lock);
    80002592:	8526                	mv	a0,s1
    80002594:	ffffe097          	auipc	ra,0xffffe
    80002598:	706080e7          	jalr	1798(ra) # 80000c9a <release>
      return 0;
    8000259c:	4501                	li	a0,0
}
    8000259e:	70a2                	ld	ra,40(sp)
    800025a0:	7402                	ld	s0,32(sp)
    800025a2:	64e2                	ld	s1,24(sp)
    800025a4:	6942                	ld	s2,16(sp)
    800025a6:	69a2                	ld	s3,8(sp)
    800025a8:	6145                	addi	sp,sp,48
    800025aa:	8082                	ret
        p->state = RUNNABLE;
    800025ac:	4789                	li	a5,2
    800025ae:	d09c                	sw	a5,32(s1)
    800025b0:	b7cd                	j	80002592 <kill+0x50>

00000000800025b2 <either_copyout>:
// Copy to either a user address, or kernel address,
// depending on usr_dst.
// Returns 0 on success, -1 on error.
int
either_copyout(int user_dst, uint64 dst, void *src, uint64 len)
{
    800025b2:	7179                	addi	sp,sp,-48
    800025b4:	f406                	sd	ra,40(sp)
    800025b6:	f022                	sd	s0,32(sp)
    800025b8:	ec26                	sd	s1,24(sp)
    800025ba:	e84a                	sd	s2,16(sp)
    800025bc:	e44e                	sd	s3,8(sp)
    800025be:	e052                	sd	s4,0(sp)
    800025c0:	1800                	addi	s0,sp,48
    800025c2:	84aa                	mv	s1,a0
    800025c4:	892e                	mv	s2,a1
    800025c6:	89b2                	mv	s3,a2
    800025c8:	8a36                	mv	s4,a3
  struct proc *p = myproc();
    800025ca:	fffff097          	auipc	ra,0xfffff
    800025ce:	5b8080e7          	jalr	1464(ra) # 80001b82 <myproc>
  if(user_dst){
    800025d2:	c08d                	beqz	s1,800025f4 <either_copyout+0x42>
    return copyout(p->pagetable, dst, src, len);
    800025d4:	86d2                	mv	a3,s4
    800025d6:	864e                	mv	a2,s3
    800025d8:	85ca                	mv	a1,s2
    800025da:	6d28                	ld	a0,88(a0)
    800025dc:	fffff097          	auipc	ra,0xfffff
    800025e0:	298080e7          	jalr	664(ra) # 80001874 <copyout>
  } else {
    memmove((char *)dst, src, len);
    return 0;
  }
}
    800025e4:	70a2                	ld	ra,40(sp)
    800025e6:	7402                	ld	s0,32(sp)
    800025e8:	64e2                	ld	s1,24(sp)
    800025ea:	6942                	ld	s2,16(sp)
    800025ec:	69a2                	ld	s3,8(sp)
    800025ee:	6a02                	ld	s4,0(sp)
    800025f0:	6145                	addi	sp,sp,48
    800025f2:	8082                	ret
    memmove((char *)dst, src, len);
    800025f4:	000a061b          	sext.w	a2,s4
    800025f8:	85ce                	mv	a1,s3
    800025fa:	854a                	mv	a0,s2
    800025fc:	fffff097          	auipc	ra,0xfffff
    80002600:	8f8080e7          	jalr	-1800(ra) # 80000ef4 <memmove>
    return 0;
    80002604:	8526                	mv	a0,s1
    80002606:	bff9                	j	800025e4 <either_copyout+0x32>

0000000080002608 <either_copyin>:
// Copy from either a user address, or kernel address,
// depending on usr_src.
// Returns 0 on success, -1 on error.
int
either_copyin(void *dst, int user_src, uint64 src, uint64 len)
{
    80002608:	7179                	addi	sp,sp,-48
    8000260a:	f406                	sd	ra,40(sp)
    8000260c:	f022                	sd	s0,32(sp)
    8000260e:	ec26                	sd	s1,24(sp)
    80002610:	e84a                	sd	s2,16(sp)
    80002612:	e44e                	sd	s3,8(sp)
    80002614:	e052                	sd	s4,0(sp)
    80002616:	1800                	addi	s0,sp,48
    80002618:	892a                	mv	s2,a0
    8000261a:	84ae                	mv	s1,a1
    8000261c:	89b2                	mv	s3,a2
    8000261e:	8a36                	mv	s4,a3
  struct proc *p = myproc();
    80002620:	fffff097          	auipc	ra,0xfffff
    80002624:	562080e7          	jalr	1378(ra) # 80001b82 <myproc>
  if(user_src){
    80002628:	c08d                	beqz	s1,8000264a <either_copyin+0x42>
    return copyin(p->pagetable, dst, src, len);
    8000262a:	86d2                	mv	a3,s4
    8000262c:	864e                	mv	a2,s3
    8000262e:	85ca                	mv	a1,s2
    80002630:	6d28                	ld	a0,88(a0)
    80002632:	fffff097          	auipc	ra,0xfffff
    80002636:	2ce080e7          	jalr	718(ra) # 80001900 <copyin>
  } else {
    memmove(dst, (char*)src, len);
    return 0;
  }
}
    8000263a:	70a2                	ld	ra,40(sp)
    8000263c:	7402                	ld	s0,32(sp)
    8000263e:	64e2                	ld	s1,24(sp)
    80002640:	6942                	ld	s2,16(sp)
    80002642:	69a2                	ld	s3,8(sp)
    80002644:	6a02                	ld	s4,0(sp)
    80002646:	6145                	addi	sp,sp,48
    80002648:	8082                	ret
    memmove(dst, (char*)src, len);
    8000264a:	000a061b          	sext.w	a2,s4
    8000264e:	85ce                	mv	a1,s3
    80002650:	854a                	mv	a0,s2
    80002652:	fffff097          	auipc	ra,0xfffff
    80002656:	8a2080e7          	jalr	-1886(ra) # 80000ef4 <memmove>
    return 0;
    8000265a:	8526                	mv	a0,s1
    8000265c:	bff9                	j	8000263a <either_copyin+0x32>

000000008000265e <procdump>:
// Print a process listing to console.  For debugging.
// Runs when user types ^P on console.
// No lock to avoid wedging a stuck machine further.
void
procdump(void)
{
    8000265e:	715d                	addi	sp,sp,-80
    80002660:	e486                	sd	ra,72(sp)
    80002662:	e0a2                	sd	s0,64(sp)
    80002664:	fc26                	sd	s1,56(sp)
    80002666:	f84a                	sd	s2,48(sp)
    80002668:	f44e                	sd	s3,40(sp)
    8000266a:	f052                	sd	s4,32(sp)
    8000266c:	ec56                	sd	s5,24(sp)
    8000266e:	e85a                	sd	s6,16(sp)
    80002670:	e45e                	sd	s7,8(sp)
    80002672:	0880                	addi	s0,sp,80
  [ZOMBIE]    "zombie"
  };
  struct proc *p;
  char *state;

  printf("\n");
    80002674:	00006517          	auipc	a0,0x6
    80002678:	c1c50513          	addi	a0,a0,-996 # 80008290 <userret+0x200>
    8000267c:	ffffe097          	auipc	ra,0xffffe
    80002680:	f26080e7          	jalr	-218(ra) # 800005a2 <printf>
  for(p = proc; p < &proc[NPROC]; p++){
    80002684:	00013497          	auipc	s1,0x13
    80002688:	85448493          	addi	s1,s1,-1964 # 80014ed8 <proc+0x160>
    8000268c:	00018917          	auipc	s2,0x18
    80002690:	44c90913          	addi	s2,s2,1100 # 8001aad8 <bcache+0x140>
    if(p->state == UNUSED)
      continue;
    if(p->state >= 0 && p->state < NELEM(states) && states[p->state])
    80002694:	4b11                	li	s6,4
      state = states[p->state];
    else
      state = "???";
    80002696:	00006997          	auipc	s3,0x6
    8000269a:	e2a98993          	addi	s3,s3,-470 # 800084c0 <userret+0x430>
    printf("%d %s %s", p->pid, state, p->name);
    8000269e:	00006a97          	auipc	s5,0x6
    800026a2:	e2aa8a93          	addi	s5,s5,-470 # 800084c8 <userret+0x438>
    printf("\n");
    800026a6:	00006a17          	auipc	s4,0x6
    800026aa:	beaa0a13          	addi	s4,s4,-1046 # 80008290 <userret+0x200>
    if(p->state >= 0 && p->state < NELEM(states) && states[p->state])
    800026ae:	00006b97          	auipc	s7,0x6
    800026b2:	41ab8b93          	addi	s7,s7,1050 # 80008ac8 <states.0>
    800026b6:	a00d                	j	800026d8 <procdump+0x7a>
    printf("%d %s %s", p->pid, state, p->name);
    800026b8:	ee06a583          	lw	a1,-288(a3)
    800026bc:	8556                	mv	a0,s5
    800026be:	ffffe097          	auipc	ra,0xffffe
    800026c2:	ee4080e7          	jalr	-284(ra) # 800005a2 <printf>
    printf("\n");
    800026c6:	8552                	mv	a0,s4
    800026c8:	ffffe097          	auipc	ra,0xffffe
    800026cc:	eda080e7          	jalr	-294(ra) # 800005a2 <printf>
  for(p = proc; p < &proc[NPROC]; p++){
    800026d0:	17048493          	addi	s1,s1,368
    800026d4:	03248263          	beq	s1,s2,800026f8 <procdump+0x9a>
    if(p->state == UNUSED)
    800026d8:	86a6                	mv	a3,s1
    800026da:	ec04a783          	lw	a5,-320(s1)
    800026de:	dbed                	beqz	a5,800026d0 <procdump+0x72>
      state = "???";
    800026e0:	864e                	mv	a2,s3
    if(p->state >= 0 && p->state < NELEM(states) && states[p->state])
    800026e2:	fcfb6be3          	bltu	s6,a5,800026b8 <procdump+0x5a>
    800026e6:	02079713          	slli	a4,a5,0x20
    800026ea:	01d75793          	srli	a5,a4,0x1d
    800026ee:	97de                	add	a5,a5,s7
    800026f0:	6390                	ld	a2,0(a5)
    800026f2:	f279                	bnez	a2,800026b8 <procdump+0x5a>
      state = "???";
    800026f4:	864e                	mv	a2,s3
    800026f6:	b7c9                	j	800026b8 <procdump+0x5a>
  }
}
    800026f8:	60a6                	ld	ra,72(sp)
    800026fa:	6406                	ld	s0,64(sp)
    800026fc:	74e2                	ld	s1,56(sp)
    800026fe:	7942                	ld	s2,48(sp)
    80002700:	79a2                	ld	s3,40(sp)
    80002702:	7a02                	ld	s4,32(sp)
    80002704:	6ae2                	ld	s5,24(sp)
    80002706:	6b42                	ld	s6,16(sp)
    80002708:	6ba2                	ld	s7,8(sp)
    8000270a:	6161                	addi	sp,sp,80
    8000270c:	8082                	ret

000000008000270e <swtch>:
    8000270e:	00153023          	sd	ra,0(a0)
    80002712:	00253423          	sd	sp,8(a0)
    80002716:	e900                	sd	s0,16(a0)
    80002718:	ed04                	sd	s1,24(a0)
    8000271a:	03253023          	sd	s2,32(a0)
    8000271e:	03353423          	sd	s3,40(a0)
    80002722:	03453823          	sd	s4,48(a0)
    80002726:	03553c23          	sd	s5,56(a0)
    8000272a:	05653023          	sd	s6,64(a0)
    8000272e:	05753423          	sd	s7,72(a0)
    80002732:	05853823          	sd	s8,80(a0)
    80002736:	05953c23          	sd	s9,88(a0)
    8000273a:	07a53023          	sd	s10,96(a0)
    8000273e:	07b53423          	sd	s11,104(a0)
    80002742:	0005b083          	ld	ra,0(a1)
    80002746:	0085b103          	ld	sp,8(a1)
    8000274a:	6980                	ld	s0,16(a1)
    8000274c:	6d84                	ld	s1,24(a1)
    8000274e:	0205b903          	ld	s2,32(a1)
    80002752:	0285b983          	ld	s3,40(a1)
    80002756:	0305ba03          	ld	s4,48(a1)
    8000275a:	0385ba83          	ld	s5,56(a1)
    8000275e:	0405bb03          	ld	s6,64(a1)
    80002762:	0485bb83          	ld	s7,72(a1)
    80002766:	0505bc03          	ld	s8,80(a1)
    8000276a:	0585bc83          	ld	s9,88(a1)
    8000276e:	0605bd03          	ld	s10,96(a1)
    80002772:	0685bd83          	ld	s11,104(a1)
    80002776:	8082                	ret

0000000080002778 <trapinit>:

extern int devintr();

void
trapinit(void)
{
    80002778:	1141                	addi	sp,sp,-16
    8000277a:	e406                	sd	ra,8(sp)
    8000277c:	e022                	sd	s0,0(sp)
    8000277e:	0800                	addi	s0,sp,16
  initlock(&tickslock, "time");
    80002780:	00006597          	auipc	a1,0x6
    80002784:	d8058593          	addi	a1,a1,-640 # 80008500 <userret+0x470>
    80002788:	00018517          	auipc	a0,0x18
    8000278c:	1f050513          	addi	a0,a0,496 # 8001a978 <tickslock>
    80002790:	ffffe097          	auipc	ra,0xffffe
    80002794:	34c080e7          	jalr	844(ra) # 80000adc <initlock>
}
    80002798:	60a2                	ld	ra,8(sp)
    8000279a:	6402                	ld	s0,0(sp)
    8000279c:	0141                	addi	sp,sp,16
    8000279e:	8082                	ret

00000000800027a0 <trapinithart>:

// set up to take exceptions and traps while in the kernel.
void
trapinithart(void)
{
    800027a0:	1141                	addi	sp,sp,-16
    800027a2:	e422                	sd	s0,8(sp)
    800027a4:	0800                	addi	s0,sp,16
  asm volatile("csrw stvec, %0" : : "r" (x));
    800027a6:	00003797          	auipc	a5,0x3
    800027aa:	6fa78793          	addi	a5,a5,1786 # 80005ea0 <kernelvec>
    800027ae:	10579073          	csrw	stvec,a5
  w_stvec((uint64)kernelvec);
}
    800027b2:	6422                	ld	s0,8(sp)
    800027b4:	0141                	addi	sp,sp,16
    800027b6:	8082                	ret

00000000800027b8 <usertrapret>:
//
// return to user space
//
void
usertrapret(void)
{
    800027b8:	1141                	addi	sp,sp,-16
    800027ba:	e406                	sd	ra,8(sp)
    800027bc:	e022                	sd	s0,0(sp)
    800027be:	0800                	addi	s0,sp,16
  struct proc *p = myproc();
    800027c0:	fffff097          	auipc	ra,0xfffff
    800027c4:	3c2080e7          	jalr	962(ra) # 80001b82 <myproc>
  asm volatile("csrr %0, sstatus" : "=r" (x) );
    800027c8:	100027f3          	csrr	a5,sstatus
  w_sstatus(r_sstatus() & ~SSTATUS_SIE);
    800027cc:	9bf5                	andi	a5,a5,-3
  asm volatile("csrw sstatus, %0" : : "r" (x));
    800027ce:	10079073          	csrw	sstatus,a5
  // turn off interrupts, since we're switching
  // now from kerneltrap() to usertrap().
  intr_off();

  // send syscalls, interrupts, and exceptions to trampoline.S
  w_stvec(TRAMPOLINE + (uservec - trampoline));
    800027d2:	00006617          	auipc	a2,0x6
    800027d6:	82e60613          	addi	a2,a2,-2002 # 80008000 <trampoline>
    800027da:	00006697          	auipc	a3,0x6
    800027de:	82668693          	addi	a3,a3,-2010 # 80008000 <trampoline>
    800027e2:	8e91                	sub	a3,a3,a2
    800027e4:	040007b7          	lui	a5,0x4000
    800027e8:	17fd                	addi	a5,a5,-1
    800027ea:	07b2                	slli	a5,a5,0xc
    800027ec:	96be                	add	a3,a3,a5
  asm volatile("csrw stvec, %0" : : "r" (x));
    800027ee:	10569073          	csrw	stvec,a3

  // set up trapframe values that uservec will need when
  // the process next re-enters the kernel.
  p->tf->kernel_satp = r_satp();         // kernel page table
    800027f2:	7138                	ld	a4,96(a0)
  asm volatile("csrr %0, satp" : "=r" (x) );
    800027f4:	180026f3          	csrr	a3,satp
    800027f8:	e314                	sd	a3,0(a4)
  p->tf->kernel_sp = p->kstack + PGSIZE; // process's kernel stack
    800027fa:	7138                	ld	a4,96(a0)
    800027fc:	6534                	ld	a3,72(a0)
    800027fe:	6585                	lui	a1,0x1
    80002800:	96ae                	add	a3,a3,a1
    80002802:	e714                	sd	a3,8(a4)
  p->tf->kernel_trap = (uint64)usertrap;
    80002804:	7138                	ld	a4,96(a0)
    80002806:	00000697          	auipc	a3,0x0
    8000280a:	12868693          	addi	a3,a3,296 # 8000292e <usertrap>
    8000280e:	eb14                	sd	a3,16(a4)
  p->tf->kernel_hartid = r_tp();         // hartid for cpuid()
    80002810:	7138                	ld	a4,96(a0)
  asm volatile("mv %0, tp" : "=r" (x) );
    80002812:	8692                	mv	a3,tp
    80002814:	f314                	sd	a3,32(a4)
  asm volatile("csrr %0, sstatus" : "=r" (x) );
    80002816:	100026f3          	csrr	a3,sstatus
  // set up the registers that trampoline.S's sret will use
  // to get to user space.
  
  // set S Previous Privilege mode to User.
  unsigned long x = r_sstatus();
  x &= ~SSTATUS_SPP; // clear SPP to 0 for user mode
    8000281a:	eff6f693          	andi	a3,a3,-257
  x |= SSTATUS_SPIE; // enable interrupts in user mode
    8000281e:	0206e693          	ori	a3,a3,32
  asm volatile("csrw sstatus, %0" : : "r" (x));
    80002822:	10069073          	csrw	sstatus,a3
  w_sstatus(x);

  // set S Exception Program Counter to the saved user pc.
  w_sepc(p->tf->epc);
    80002826:	7138                	ld	a4,96(a0)
  asm volatile("csrw sepc, %0" : : "r" (x));
    80002828:	6f18                	ld	a4,24(a4)
    8000282a:	14171073          	csrw	sepc,a4

  // tell trampoline.S the user page table to switch to.
  uint64 satp = MAKE_SATP(p->pagetable);
    8000282e:	6d2c                	ld	a1,88(a0)
    80002830:	81b1                	srli	a1,a1,0xc

  // jump to trampoline.S at the top of memory, which 
  // switches to the user page table, restores user registers,
  // and switches to user mode with sret.
  uint64 fn = TRAMPOLINE + (userret - trampoline);
    80002832:	00006717          	auipc	a4,0x6
    80002836:	85e70713          	addi	a4,a4,-1954 # 80008090 <userret>
    8000283a:	8f11                	sub	a4,a4,a2
    8000283c:	97ba                	add	a5,a5,a4
  ((void (*)(uint64,uint64))fn)(TRAPFRAME, satp);
    8000283e:	577d                	li	a4,-1
    80002840:	177e                	slli	a4,a4,0x3f
    80002842:	8dd9                	or	a1,a1,a4
    80002844:	02000537          	lui	a0,0x2000
    80002848:	157d                	addi	a0,a0,-1
    8000284a:	0536                	slli	a0,a0,0xd
    8000284c:	9782                	jalr	a5
}
    8000284e:	60a2                	ld	ra,8(sp)
    80002850:	6402                	ld	s0,0(sp)
    80002852:	0141                	addi	sp,sp,16
    80002854:	8082                	ret

0000000080002856 <clockintr>:
  w_sstatus(sstatus);
}

void
clockintr()
{
    80002856:	1101                	addi	sp,sp,-32
    80002858:	ec06                	sd	ra,24(sp)
    8000285a:	e822                	sd	s0,16(sp)
    8000285c:	e426                	sd	s1,8(sp)
    8000285e:	1000                	addi	s0,sp,32
  acquire(&tickslock);
    80002860:	00018497          	auipc	s1,0x18
    80002864:	11848493          	addi	s1,s1,280 # 8001a978 <tickslock>
    80002868:	8526                	mv	a0,s1
    8000286a:	ffffe097          	auipc	ra,0xffffe
    8000286e:	3c0080e7          	jalr	960(ra) # 80000c2a <acquire>
  ticks++;
    80002872:	0002d517          	auipc	a0,0x2d
    80002876:	7ce50513          	addi	a0,a0,1998 # 80030040 <ticks>
    8000287a:	411c                	lw	a5,0(a0)
    8000287c:	2785                	addiw	a5,a5,1
    8000287e:	c11c                	sw	a5,0(a0)
  wakeup(&ticks);
    80002880:	00000097          	auipc	ra,0x0
    80002884:	c58080e7          	jalr	-936(ra) # 800024d8 <wakeup>
  release(&tickslock);
    80002888:	8526                	mv	a0,s1
    8000288a:	ffffe097          	auipc	ra,0xffffe
    8000288e:	410080e7          	jalr	1040(ra) # 80000c9a <release>
}
    80002892:	60e2                	ld	ra,24(sp)
    80002894:	6442                	ld	s0,16(sp)
    80002896:	64a2                	ld	s1,8(sp)
    80002898:	6105                	addi	sp,sp,32
    8000289a:	8082                	ret

000000008000289c <devintr>:
// returns 2 if timer interrupt,
// 1 if other device,
// 0 if not recognized.
int
devintr()
{
    8000289c:	1101                	addi	sp,sp,-32
    8000289e:	ec06                	sd	ra,24(sp)
    800028a0:	e822                	sd	s0,16(sp)
    800028a2:	e426                	sd	s1,8(sp)
    800028a4:	1000                	addi	s0,sp,32
  asm volatile("csrr %0, scause" : "=r" (x) );
    800028a6:	14202773          	csrr	a4,scause
  uint64 scause = r_scause();

  if((scause & 0x8000000000000000L) &&
    800028aa:	00074d63          	bltz	a4,800028c4 <devintr+0x28>
      virtio_disk_intr(irq - VIRTIO0_IRQ);
    }

    plic_complete(irq);
    return 1;
  } else if(scause == 0x8000000000000001L){
    800028ae:	57fd                	li	a5,-1
    800028b0:	17fe                	slli	a5,a5,0x3f
    800028b2:	0785                	addi	a5,a5,1
    // the SSIP bit in sip.
    w_sip(r_sip() & ~2);

    return 2;
  } else {
    return 0;
    800028b4:	4501                	li	a0,0
  } else if(scause == 0x8000000000000001L){
    800028b6:	04f70b63          	beq	a4,a5,8000290c <devintr+0x70>
  }
}
    800028ba:	60e2                	ld	ra,24(sp)
    800028bc:	6442                	ld	s0,16(sp)
    800028be:	64a2                	ld	s1,8(sp)
    800028c0:	6105                	addi	sp,sp,32
    800028c2:	8082                	ret
     (scause & 0xff) == 9){
    800028c4:	0ff77793          	andi	a5,a4,255
  if((scause & 0x8000000000000000L) &&
    800028c8:	46a5                	li	a3,9
    800028ca:	fed792e3          	bne	a5,a3,800028ae <devintr+0x12>
    int irq = plic_claim();
    800028ce:	00003097          	auipc	ra,0x3
    800028d2:	6da080e7          	jalr	1754(ra) # 80005fa8 <plic_claim>
    800028d6:	84aa                	mv	s1,a0
    if(irq == UART0_IRQ){
    800028d8:	47a9                	li	a5,10
    800028da:	00f50e63          	beq	a0,a5,800028f6 <devintr+0x5a>
    } else if(irq == VIRTIO0_IRQ || irq == VIRTIO1_IRQ ){
    800028de:	fff5079b          	addiw	a5,a0,-1
    800028e2:	4705                	li	a4,1
    800028e4:	00f77e63          	bgeu	a4,a5,80002900 <devintr+0x64>
    plic_complete(irq);
    800028e8:	8526                	mv	a0,s1
    800028ea:	00003097          	auipc	ra,0x3
    800028ee:	6e2080e7          	jalr	1762(ra) # 80005fcc <plic_complete>
    return 1;
    800028f2:	4505                	li	a0,1
    800028f4:	b7d9                	j	800028ba <devintr+0x1e>
      uartintr();
    800028f6:	ffffe097          	auipc	ra,0xffffe
    800028fa:	f42080e7          	jalr	-190(ra) # 80000838 <uartintr>
    800028fe:	b7ed                	j	800028e8 <devintr+0x4c>
      virtio_disk_intr(irq - VIRTIO0_IRQ);
    80002900:	853e                	mv	a0,a5
    80002902:	00004097          	auipc	ra,0x4
    80002906:	c74080e7          	jalr	-908(ra) # 80006576 <virtio_disk_intr>
    8000290a:	bff9                	j	800028e8 <devintr+0x4c>
    if(cpuid() == 0){
    8000290c:	fffff097          	auipc	ra,0xfffff
    80002910:	24a080e7          	jalr	586(ra) # 80001b56 <cpuid>
    80002914:	c901                	beqz	a0,80002924 <devintr+0x88>
  asm volatile("csrr %0, sip" : "=r" (x) );
    80002916:	144027f3          	csrr	a5,sip
    w_sip(r_sip() & ~2);
    8000291a:	9bf5                	andi	a5,a5,-3
  asm volatile("csrw sip, %0" : : "r" (x));
    8000291c:	14479073          	csrw	sip,a5
    return 2;
    80002920:	4509                	li	a0,2
    80002922:	bf61                	j	800028ba <devintr+0x1e>
      clockintr();
    80002924:	00000097          	auipc	ra,0x0
    80002928:	f32080e7          	jalr	-206(ra) # 80002856 <clockintr>
    8000292c:	b7ed                	j	80002916 <devintr+0x7a>

000000008000292e <usertrap>:
{
    8000292e:	1101                	addi	sp,sp,-32
    80002930:	ec06                	sd	ra,24(sp)
    80002932:	e822                	sd	s0,16(sp)
    80002934:	e426                	sd	s1,8(sp)
    80002936:	e04a                	sd	s2,0(sp)
    80002938:	1000                	addi	s0,sp,32
  asm volatile("csrr %0, sstatus" : "=r" (x) );
    8000293a:	100027f3          	csrr	a5,sstatus
  if((r_sstatus() & SSTATUS_SPP) != 0)
    8000293e:	1007f793          	andi	a5,a5,256
    80002942:	e7bd                	bnez	a5,800029b0 <usertrap+0x82>
  asm volatile("csrw stvec, %0" : : "r" (x));
    80002944:	00003797          	auipc	a5,0x3
    80002948:	55c78793          	addi	a5,a5,1372 # 80005ea0 <kernelvec>
    8000294c:	10579073          	csrw	stvec,a5
  struct proc *p = myproc();
    80002950:	fffff097          	auipc	ra,0xfffff
    80002954:	232080e7          	jalr	562(ra) # 80001b82 <myproc>
    80002958:	84aa                	mv	s1,a0
  p->tf->epc = r_sepc();
    8000295a:	713c                	ld	a5,96(a0)
  asm volatile("csrr %0, sepc" : "=r" (x) );
    8000295c:	14102773          	csrr	a4,sepc
    80002960:	ef98                	sd	a4,24(a5)
  asm volatile("csrr %0, scause" : "=r" (x) );
    80002962:	14202773          	csrr	a4,scause
  if(r_scause() == 8){
    80002966:	47a1                	li	a5,8
    80002968:	06f71263          	bne	a4,a5,800029cc <usertrap+0x9e>
    if(p->killed)
    8000296c:	5d1c                	lw	a5,56(a0)
    8000296e:	eba9                	bnez	a5,800029c0 <usertrap+0x92>
    p->tf->epc += 4;
    80002970:	70b8                	ld	a4,96(s1)
    80002972:	6f1c                	ld	a5,24(a4)
    80002974:	0791                	addi	a5,a5,4
    80002976:	ef1c                	sd	a5,24(a4)
  asm volatile("csrr %0, sie" : "=r" (x) );
    80002978:	104027f3          	csrr	a5,sie
  w_sie(r_sie() | SIE_SEIE | SIE_STIE | SIE_SSIE);
    8000297c:	2227e793          	ori	a5,a5,546
  asm volatile("csrw sie, %0" : : "r" (x));
    80002980:	10479073          	csrw	sie,a5
  asm volatile("csrr %0, sstatus" : "=r" (x) );
    80002984:	100027f3          	csrr	a5,sstatus
  w_sstatus(r_sstatus() | SSTATUS_SIE);
    80002988:	0027e793          	ori	a5,a5,2
  asm volatile("csrw sstatus, %0" : : "r" (x));
    8000298c:	10079073          	csrw	sstatus,a5
    syscall();
    80002990:	00000097          	auipc	ra,0x0
    80002994:	2e0080e7          	jalr	736(ra) # 80002c70 <syscall>
  if(p->killed)
    80002998:	5c9c                	lw	a5,56(s1)
    8000299a:	ebc1                	bnez	a5,80002a2a <usertrap+0xfc>
  usertrapret();
    8000299c:	00000097          	auipc	ra,0x0
    800029a0:	e1c080e7          	jalr	-484(ra) # 800027b8 <usertrapret>
}
    800029a4:	60e2                	ld	ra,24(sp)
    800029a6:	6442                	ld	s0,16(sp)
    800029a8:	64a2                	ld	s1,8(sp)
    800029aa:	6902                	ld	s2,0(sp)
    800029ac:	6105                	addi	sp,sp,32
    800029ae:	8082                	ret
    panic("usertrap: not from user mode");
    800029b0:	00006517          	auipc	a0,0x6
    800029b4:	b5850513          	addi	a0,a0,-1192 # 80008508 <userret+0x478>
    800029b8:	ffffe097          	auipc	ra,0xffffe
    800029bc:	b90080e7          	jalr	-1136(ra) # 80000548 <panic>
      exit(-1);
    800029c0:	557d                	li	a0,-1
    800029c2:	00000097          	auipc	ra,0x0
    800029c6:	84c080e7          	jalr	-1972(ra) # 8000220e <exit>
    800029ca:	b75d                	j	80002970 <usertrap+0x42>
  } else if((which_dev = devintr()) != 0){
    800029cc:	00000097          	auipc	ra,0x0
    800029d0:	ed0080e7          	jalr	-304(ra) # 8000289c <devintr>
    800029d4:	892a                	mv	s2,a0
    800029d6:	c501                	beqz	a0,800029de <usertrap+0xb0>
  if(p->killed)
    800029d8:	5c9c                	lw	a5,56(s1)
    800029da:	c3a1                	beqz	a5,80002a1a <usertrap+0xec>
    800029dc:	a815                	j	80002a10 <usertrap+0xe2>
  asm volatile("csrr %0, scause" : "=r" (x) );
    800029de:	142025f3          	csrr	a1,scause
    printf("usertrap(): unexpected scause %p pid=%d\n", r_scause(), p->pid);
    800029e2:	40b0                	lw	a2,64(s1)
    800029e4:	00006517          	auipc	a0,0x6
    800029e8:	b4450513          	addi	a0,a0,-1212 # 80008528 <userret+0x498>
    800029ec:	ffffe097          	auipc	ra,0xffffe
    800029f0:	bb6080e7          	jalr	-1098(ra) # 800005a2 <printf>
  asm volatile("csrr %0, sepc" : "=r" (x) );
    800029f4:	141025f3          	csrr	a1,sepc
  asm volatile("csrr %0, stval" : "=r" (x) );
    800029f8:	14302673          	csrr	a2,stval
    printf("            sepc=%p stval=%p\n", r_sepc(), r_stval());
    800029fc:	00006517          	auipc	a0,0x6
    80002a00:	b5c50513          	addi	a0,a0,-1188 # 80008558 <userret+0x4c8>
    80002a04:	ffffe097          	auipc	ra,0xffffe
    80002a08:	b9e080e7          	jalr	-1122(ra) # 800005a2 <printf>
    p->killed = 1;
    80002a0c:	4785                	li	a5,1
    80002a0e:	dc9c                	sw	a5,56(s1)
    exit(-1);
    80002a10:	557d                	li	a0,-1
    80002a12:	fffff097          	auipc	ra,0xfffff
    80002a16:	7fc080e7          	jalr	2044(ra) # 8000220e <exit>
  if(which_dev == 2)
    80002a1a:	4789                	li	a5,2
    80002a1c:	f8f910e3          	bne	s2,a5,8000299c <usertrap+0x6e>
    yield();
    80002a20:	00000097          	auipc	ra,0x0
    80002a24:	8fc080e7          	jalr	-1796(ra) # 8000231c <yield>
    80002a28:	bf95                	j	8000299c <usertrap+0x6e>
  int which_dev = 0;
    80002a2a:	4901                	li	s2,0
    80002a2c:	b7d5                	j	80002a10 <usertrap+0xe2>

0000000080002a2e <kerneltrap>:
{
    80002a2e:	7179                	addi	sp,sp,-48
    80002a30:	f406                	sd	ra,40(sp)
    80002a32:	f022                	sd	s0,32(sp)
    80002a34:	ec26                	sd	s1,24(sp)
    80002a36:	e84a                	sd	s2,16(sp)
    80002a38:	e44e                	sd	s3,8(sp)
    80002a3a:	1800                	addi	s0,sp,48
  asm volatile("csrr %0, sepc" : "=r" (x) );
    80002a3c:	14102973          	csrr	s2,sepc
  asm volatile("csrr %0, sstatus" : "=r" (x) );
    80002a40:	100024f3          	csrr	s1,sstatus
  asm volatile("csrr %0, scause" : "=r" (x) );
    80002a44:	142029f3          	csrr	s3,scause
  if((sstatus & SSTATUS_SPP) == 0)
    80002a48:	1004f793          	andi	a5,s1,256
    80002a4c:	cb85                	beqz	a5,80002a7c <kerneltrap+0x4e>
  asm volatile("csrr %0, sstatus" : "=r" (x) );
    80002a4e:	100027f3          	csrr	a5,sstatus
  return (x & SSTATUS_SIE) != 0;
    80002a52:	8b89                	andi	a5,a5,2
  if(intr_get() != 0)
    80002a54:	ef85                	bnez	a5,80002a8c <kerneltrap+0x5e>
  if((which_dev = devintr()) == 0){
    80002a56:	00000097          	auipc	ra,0x0
    80002a5a:	e46080e7          	jalr	-442(ra) # 8000289c <devintr>
    80002a5e:	cd1d                	beqz	a0,80002a9c <kerneltrap+0x6e>
  if(which_dev == 2 && myproc() != 0 && myproc()->state == RUNNING)
    80002a60:	4789                	li	a5,2
    80002a62:	06f50a63          	beq	a0,a5,80002ad6 <kerneltrap+0xa8>
  asm volatile("csrw sepc, %0" : : "r" (x));
    80002a66:	14191073          	csrw	sepc,s2
  asm volatile("csrw sstatus, %0" : : "r" (x));
    80002a6a:	10049073          	csrw	sstatus,s1
}
    80002a6e:	70a2                	ld	ra,40(sp)
    80002a70:	7402                	ld	s0,32(sp)
    80002a72:	64e2                	ld	s1,24(sp)
    80002a74:	6942                	ld	s2,16(sp)
    80002a76:	69a2                	ld	s3,8(sp)
    80002a78:	6145                	addi	sp,sp,48
    80002a7a:	8082                	ret
    panic("kerneltrap: not from supervisor mode");
    80002a7c:	00006517          	auipc	a0,0x6
    80002a80:	afc50513          	addi	a0,a0,-1284 # 80008578 <userret+0x4e8>
    80002a84:	ffffe097          	auipc	ra,0xffffe
    80002a88:	ac4080e7          	jalr	-1340(ra) # 80000548 <panic>
    panic("kerneltrap: interrupts enabled");
    80002a8c:	00006517          	auipc	a0,0x6
    80002a90:	b1450513          	addi	a0,a0,-1260 # 800085a0 <userret+0x510>
    80002a94:	ffffe097          	auipc	ra,0xffffe
    80002a98:	ab4080e7          	jalr	-1356(ra) # 80000548 <panic>
    printf("scause %p\n", scause);
    80002a9c:	85ce                	mv	a1,s3
    80002a9e:	00006517          	auipc	a0,0x6
    80002aa2:	b2250513          	addi	a0,a0,-1246 # 800085c0 <userret+0x530>
    80002aa6:	ffffe097          	auipc	ra,0xffffe
    80002aaa:	afc080e7          	jalr	-1284(ra) # 800005a2 <printf>
  asm volatile("csrr %0, sepc" : "=r" (x) );
    80002aae:	141025f3          	csrr	a1,sepc
  asm volatile("csrr %0, stval" : "=r" (x) );
    80002ab2:	14302673          	csrr	a2,stval
    printf("sepc=%p stval=%p\n", r_sepc(), r_stval());
    80002ab6:	00006517          	auipc	a0,0x6
    80002aba:	b1a50513          	addi	a0,a0,-1254 # 800085d0 <userret+0x540>
    80002abe:	ffffe097          	auipc	ra,0xffffe
    80002ac2:	ae4080e7          	jalr	-1308(ra) # 800005a2 <printf>
    panic("kerneltrap");
    80002ac6:	00006517          	auipc	a0,0x6
    80002aca:	b2250513          	addi	a0,a0,-1246 # 800085e8 <userret+0x558>
    80002ace:	ffffe097          	auipc	ra,0xffffe
    80002ad2:	a7a080e7          	jalr	-1414(ra) # 80000548 <panic>
  if(which_dev == 2 && myproc() != 0 && myproc()->state == RUNNING)
    80002ad6:	fffff097          	auipc	ra,0xfffff
    80002ada:	0ac080e7          	jalr	172(ra) # 80001b82 <myproc>
    80002ade:	d541                	beqz	a0,80002a66 <kerneltrap+0x38>
    80002ae0:	fffff097          	auipc	ra,0xfffff
    80002ae4:	0a2080e7          	jalr	162(ra) # 80001b82 <myproc>
    80002ae8:	5118                	lw	a4,32(a0)
    80002aea:	478d                	li	a5,3
    80002aec:	f6f71de3          	bne	a4,a5,80002a66 <kerneltrap+0x38>
    yield();
    80002af0:	00000097          	auipc	ra,0x0
    80002af4:	82c080e7          	jalr	-2004(ra) # 8000231c <yield>
    80002af8:	b7bd                	j	80002a66 <kerneltrap+0x38>

0000000080002afa <argraw>:
  return strlen(buf);
}

static uint64
argraw(int n)
{
    80002afa:	1101                	addi	sp,sp,-32
    80002afc:	ec06                	sd	ra,24(sp)
    80002afe:	e822                	sd	s0,16(sp)
    80002b00:	e426                	sd	s1,8(sp)
    80002b02:	1000                	addi	s0,sp,32
    80002b04:	84aa                	mv	s1,a0
  struct proc *p = myproc();
    80002b06:	fffff097          	auipc	ra,0xfffff
    80002b0a:	07c080e7          	jalr	124(ra) # 80001b82 <myproc>
  switch (n) {
    80002b0e:	4795                	li	a5,5
    80002b10:	0497e163          	bltu	a5,s1,80002b52 <argraw+0x58>
    80002b14:	048a                	slli	s1,s1,0x2
    80002b16:	00006717          	auipc	a4,0x6
    80002b1a:	fda70713          	addi	a4,a4,-38 # 80008af0 <states.0+0x28>
    80002b1e:	94ba                	add	s1,s1,a4
    80002b20:	409c                	lw	a5,0(s1)
    80002b22:	97ba                	add	a5,a5,a4
    80002b24:	8782                	jr	a5
  case 0:
    return p->tf->a0;
    80002b26:	713c                	ld	a5,96(a0)
    80002b28:	7ba8                	ld	a0,112(a5)
  case 5:
    return p->tf->a5;
  }
  panic("argraw");
  return -1;
}
    80002b2a:	60e2                	ld	ra,24(sp)
    80002b2c:	6442                	ld	s0,16(sp)
    80002b2e:	64a2                	ld	s1,8(sp)
    80002b30:	6105                	addi	sp,sp,32
    80002b32:	8082                	ret
    return p->tf->a1;
    80002b34:	713c                	ld	a5,96(a0)
    80002b36:	7fa8                	ld	a0,120(a5)
    80002b38:	bfcd                	j	80002b2a <argraw+0x30>
    return p->tf->a2;
    80002b3a:	713c                	ld	a5,96(a0)
    80002b3c:	63c8                	ld	a0,128(a5)
    80002b3e:	b7f5                	j	80002b2a <argraw+0x30>
    return p->tf->a3;
    80002b40:	713c                	ld	a5,96(a0)
    80002b42:	67c8                	ld	a0,136(a5)
    80002b44:	b7dd                	j	80002b2a <argraw+0x30>
    return p->tf->a4;
    80002b46:	713c                	ld	a5,96(a0)
    80002b48:	6bc8                	ld	a0,144(a5)
    80002b4a:	b7c5                	j	80002b2a <argraw+0x30>
    return p->tf->a5;
    80002b4c:	713c                	ld	a5,96(a0)
    80002b4e:	6fc8                	ld	a0,152(a5)
    80002b50:	bfe9                	j	80002b2a <argraw+0x30>
  panic("argraw");
    80002b52:	00006517          	auipc	a0,0x6
    80002b56:	aa650513          	addi	a0,a0,-1370 # 800085f8 <userret+0x568>
    80002b5a:	ffffe097          	auipc	ra,0xffffe
    80002b5e:	9ee080e7          	jalr	-1554(ra) # 80000548 <panic>

0000000080002b62 <fetchaddr>:
{
    80002b62:	1101                	addi	sp,sp,-32
    80002b64:	ec06                	sd	ra,24(sp)
    80002b66:	e822                	sd	s0,16(sp)
    80002b68:	e426                	sd	s1,8(sp)
    80002b6a:	e04a                	sd	s2,0(sp)
    80002b6c:	1000                	addi	s0,sp,32
    80002b6e:	84aa                	mv	s1,a0
    80002b70:	892e                	mv	s2,a1
  struct proc *p = myproc();
    80002b72:	fffff097          	auipc	ra,0xfffff
    80002b76:	010080e7          	jalr	16(ra) # 80001b82 <myproc>
  if(addr >= p->sz || addr+sizeof(uint64) > p->sz)
    80002b7a:	693c                	ld	a5,80(a0)
    80002b7c:	02f4f863          	bgeu	s1,a5,80002bac <fetchaddr+0x4a>
    80002b80:	00848713          	addi	a4,s1,8
    80002b84:	02e7e663          	bltu	a5,a4,80002bb0 <fetchaddr+0x4e>
  if(copyin(p->pagetable, (char *)ip, addr, sizeof(*ip)) != 0)
    80002b88:	46a1                	li	a3,8
    80002b8a:	8626                	mv	a2,s1
    80002b8c:	85ca                	mv	a1,s2
    80002b8e:	6d28                	ld	a0,88(a0)
    80002b90:	fffff097          	auipc	ra,0xfffff
    80002b94:	d70080e7          	jalr	-656(ra) # 80001900 <copyin>
    80002b98:	00a03533          	snez	a0,a0
    80002b9c:	40a00533          	neg	a0,a0
}
    80002ba0:	60e2                	ld	ra,24(sp)
    80002ba2:	6442                	ld	s0,16(sp)
    80002ba4:	64a2                	ld	s1,8(sp)
    80002ba6:	6902                	ld	s2,0(sp)
    80002ba8:	6105                	addi	sp,sp,32
    80002baa:	8082                	ret
    return -1;
    80002bac:	557d                	li	a0,-1
    80002bae:	bfcd                	j	80002ba0 <fetchaddr+0x3e>
    80002bb0:	557d                	li	a0,-1
    80002bb2:	b7fd                	j	80002ba0 <fetchaddr+0x3e>

0000000080002bb4 <fetchstr>:
{
    80002bb4:	7179                	addi	sp,sp,-48
    80002bb6:	f406                	sd	ra,40(sp)
    80002bb8:	f022                	sd	s0,32(sp)
    80002bba:	ec26                	sd	s1,24(sp)
    80002bbc:	e84a                	sd	s2,16(sp)
    80002bbe:	e44e                	sd	s3,8(sp)
    80002bc0:	1800                	addi	s0,sp,48
    80002bc2:	892a                	mv	s2,a0
    80002bc4:	84ae                	mv	s1,a1
    80002bc6:	89b2                	mv	s3,a2
  struct proc *p = myproc();
    80002bc8:	fffff097          	auipc	ra,0xfffff
    80002bcc:	fba080e7          	jalr	-70(ra) # 80001b82 <myproc>
  int err = copyinstr(p->pagetable, buf, addr, max);
    80002bd0:	86ce                	mv	a3,s3
    80002bd2:	864a                	mv	a2,s2
    80002bd4:	85a6                	mv	a1,s1
    80002bd6:	6d28                	ld	a0,88(a0)
    80002bd8:	fffff097          	auipc	ra,0xfffff
    80002bdc:	db6080e7          	jalr	-586(ra) # 8000198e <copyinstr>
  if(err < 0)
    80002be0:	00054763          	bltz	a0,80002bee <fetchstr+0x3a>
  return strlen(buf);
    80002be4:	8526                	mv	a0,s1
    80002be6:	ffffe097          	auipc	ra,0xffffe
    80002bea:	436080e7          	jalr	1078(ra) # 8000101c <strlen>
}
    80002bee:	70a2                	ld	ra,40(sp)
    80002bf0:	7402                	ld	s0,32(sp)
    80002bf2:	64e2                	ld	s1,24(sp)
    80002bf4:	6942                	ld	s2,16(sp)
    80002bf6:	69a2                	ld	s3,8(sp)
    80002bf8:	6145                	addi	sp,sp,48
    80002bfa:	8082                	ret

0000000080002bfc <argint>:

// Fetch the nth 32-bit system call argument.
int
argint(int n, int *ip)
{
    80002bfc:	1101                	addi	sp,sp,-32
    80002bfe:	ec06                	sd	ra,24(sp)
    80002c00:	e822                	sd	s0,16(sp)
    80002c02:	e426                	sd	s1,8(sp)
    80002c04:	1000                	addi	s0,sp,32
    80002c06:	84ae                	mv	s1,a1
  *ip = argraw(n);
    80002c08:	00000097          	auipc	ra,0x0
    80002c0c:	ef2080e7          	jalr	-270(ra) # 80002afa <argraw>
    80002c10:	c088                	sw	a0,0(s1)
  return 0;
}
    80002c12:	4501                	li	a0,0
    80002c14:	60e2                	ld	ra,24(sp)
    80002c16:	6442                	ld	s0,16(sp)
    80002c18:	64a2                	ld	s1,8(sp)
    80002c1a:	6105                	addi	sp,sp,32
    80002c1c:	8082                	ret

0000000080002c1e <argaddr>:
// Retrieve an argument as a pointer.
// Doesn't check for legality, since
// copyin/copyout will do that.
int
argaddr(int n, uint64 *ip)
{
    80002c1e:	1101                	addi	sp,sp,-32
    80002c20:	ec06                	sd	ra,24(sp)
    80002c22:	e822                	sd	s0,16(sp)
    80002c24:	e426                	sd	s1,8(sp)
    80002c26:	1000                	addi	s0,sp,32
    80002c28:	84ae                	mv	s1,a1
  *ip = argraw(n);
    80002c2a:	00000097          	auipc	ra,0x0
    80002c2e:	ed0080e7          	jalr	-304(ra) # 80002afa <argraw>
    80002c32:	e088                	sd	a0,0(s1)
  return 0;
}
    80002c34:	4501                	li	a0,0
    80002c36:	60e2                	ld	ra,24(sp)
    80002c38:	6442                	ld	s0,16(sp)
    80002c3a:	64a2                	ld	s1,8(sp)
    80002c3c:	6105                	addi	sp,sp,32
    80002c3e:	8082                	ret

0000000080002c40 <argstr>:
// Fetch the nth word-sized system call argument as a null-terminated string.
// Copies into buf, at most max.
// Returns string length if OK (including nul), -1 if error.
int
argstr(int n, char *buf, int max)
{
    80002c40:	1101                	addi	sp,sp,-32
    80002c42:	ec06                	sd	ra,24(sp)
    80002c44:	e822                	sd	s0,16(sp)
    80002c46:	e426                	sd	s1,8(sp)
    80002c48:	e04a                	sd	s2,0(sp)
    80002c4a:	1000                	addi	s0,sp,32
    80002c4c:	84ae                	mv	s1,a1
    80002c4e:	8932                	mv	s2,a2
  *ip = argraw(n);
    80002c50:	00000097          	auipc	ra,0x0
    80002c54:	eaa080e7          	jalr	-342(ra) # 80002afa <argraw>
  uint64 addr;
  if(argaddr(n, &addr) < 0)
    return -1;
  return fetchstr(addr, buf, max);
    80002c58:	864a                	mv	a2,s2
    80002c5a:	85a6                	mv	a1,s1
    80002c5c:	00000097          	auipc	ra,0x0
    80002c60:	f58080e7          	jalr	-168(ra) # 80002bb4 <fetchstr>
}
    80002c64:	60e2                	ld	ra,24(sp)
    80002c66:	6442                	ld	s0,16(sp)
    80002c68:	64a2                	ld	s1,8(sp)
    80002c6a:	6902                	ld	s2,0(sp)
    80002c6c:	6105                	addi	sp,sp,32
    80002c6e:	8082                	ret

0000000080002c70 <syscall>:
[SYS_ntas]    sys_ntas,
};

void
syscall(void)
{
    80002c70:	1101                	addi	sp,sp,-32
    80002c72:	ec06                	sd	ra,24(sp)
